(lp1
(lp2
I1
aI2
aI3
aI4
aa(lp3
I2
aI5
aI6
aI8
aI9
aI10
aa(lp4
I4
aI9
aI12
aI13
aI14
aa(lp5
I6
aI7
aa(lp6
I14
aI15
aI16
aI26
aI38
aI43
aI47
aI57
aI112
aI114
aI120
aI121
aa(lp7
I17
aI18
aI21
aI24
aI25
aI26
aI28
aI29
aI33
aI44
aI45
aI47
aI51
aI58
aI75
aI94
aI112
aI113
aa(lp8
I18
aI21
aI29
aI34
aI37
aI41
aI46
aI50
aI52
aI54
aI60
aI71
aI75
aI82
aI94
aI95
aI100
aI101
aa(lp9
I24
aI25
aI28
aI34
aI41
aI45
aI51
aI52
aa(lp10
I33
aI38
aI39
aa(lp11
I39
aI43
aI44
aa(lp12
I50
aI59
aI61
aI62
aa(lp13
I54
aI59
aI60
aI63
aI64
aI65
aa(lp14
I57
aI58
aa(lp15
I61
aI65
aI67
aI68
aI74
aI76
aI77
aa(lp16
I63
aI66
aI71
aI73
aI74
aa(lp17
I64
aI66
aI67
aa(lp18
I73
aI76
aI82
aI85
aI91
aI92
aa(lp19
I77
aI85
aI96
aI111
aI117
aI126
aI136
aI139
aI140
aI144
aI153
aI159
aI199
aI206
aI214
aI216
aa(lp20
I84
aI97
aI105
aI108
aI127
aI133
aI141
aI149
aI150
aa(lp21
I91
aI101
aI103
aI107
aI115
aI118
aI123
aI125
aI129
aI131
aI142
aI156
aI161
aI186
aI188
aI198
aI202
aI210
aI211
aa(lp22
I92
aI96
aI103
aI104
aa(lp23
I95
aI100
aI107
aI113
aI121
aI122
aI124
aI125
aa(lp24
I99
aI105
aI106
aI108
aI109
aa(lp25
I104
aI111
aI115
aI116
aa(lp26
I116
aI117
aI118
aI119
aa(lp27
I119
aI126
aI129
aI130
aa(lp28
I120
aI124
aI128
aI150
aI154
aI180
aI203
aI210
aI213
aI215
aI216
aI218
aI231
aI244
aI249
aI269
aI270
aI290
aI325
aI337
aI342
aI344
aI349
aI356
aI357
aI362
aI369
aI413
aI449
aI509
aI611
aI618
aI625
aI629
aI639
aI653
aI655
aI664
aI682
aI693
aI707
aI714
aI723
aI749
aI751
aI763
aI764
aI766
aI783
aI798
aI805
aI815
aI823
aI894
aI897
aI961
aI980
aI990
aI1006
aI1013
aI1029
aI1032
aI1034
aI1036
aI1039
aI1040
aI1043
aI1044
aI1049
aI1053
aI1091
aI1092
aI1113
aI1117
aI1121
aI1123
aI1129
aI1194
aI1198
aI1204
aI1253
aI1258
aI1281
aI1290
aI1295
aI1306
aI1326
aI1327
aa(lp29
I122
aI123
aa(lp30
I130
aI131
aI132
aI140
aI151
aI152
aa(lp31
I132
aI142
aI143
aa(lp32
I137
aI139
aI145
aI146
aI148
aa(lp33
I138
aI146
aI147
aa(lp34
I141
aI155
aa(lp35
I143
aI151
aI156
aI157
aI166
aI181
aI184
aI189
aI198
aI205
aI207
aI212
aI214
aI215
aa(lp36
I144
aI152
aI157
aI158
aa(lp37
I145
aI153
aI160
aa(lp38
I147
aI148
aI160
aI162
aI163
aI164
aI168
aI173
aI177
aI178
aI183
aI199
aI201
aI203
aI209
aa(lp39
I158
aI159
aI181
aI182
aa(lp40
I161
aI165
aI166
aa(lp41
I162
aI167
aI169
aI172
aa(lp42
I163
aI174
aI175
aI183
aI185
aa(lp43
I164
aI167
aI175
aI176
aa(lp44
I165
aI184
aI186
aI187
aa(lp45
I168
aI169
aI170
aI171
aa(lp46
I170
aI172
aI176
aI185
aI192
aI193
aI201
aI204
aa(lp47
I171
aI177
aI190
aI191
aI192
aI194
aI195
aa(lp48
I173
aI174
aa(lp49
I179
aI180
aa(lp50
I182
aI205
aI206
aa(lp51
I187
aI188
aI189
aa(lp52
I191
aI193
aI194
aI196
aI197
aI200
aa(lp53
I195
aI196
aa(lp54
I200
aI204
aI209
aI227
aI229
aI232
aI235
aI238
aI244
aI247
aI260
aI270
aI271
aa(lp55
I202
aI207
aI208
aa(lp56
I208
aI211
aI212
aI213
aa(lp57
I232
aI234
aI235
aI236
aI239
aI255
aI261
aI271
aI272
aI274
aI275
aI282
aI288
aI293
aI309
aI322
aI325
aI337
aI340
aI343
aI346
aa(lp58
I236
aI240
aI241
aI242
aI248
aI251
aI253
aI255
aI263
aI268
aI272
aI281
aI283
aI288
aa(lp59
I238
aI260
aI261
aa(lp60
I239
aI240
aa(lp61
I242
aI243
aa(lp62
I247
aI249
aa(lp63
I251
aI253
aI256
aI259
aI263
aI268
aI281
aI293
aa(lp64
I254
aI258
aI266
aI277
aI278
aa(lp65
I257
aI258
aI259
aI273
aI274
aI276
aI279
aa(lp66
I264
aI266
aI286
aI298
aI299
aa(lp67
I273
aI275
aI277
aI279
aI280
aI284
aI285
aI289
aI309
aI310
aI316
aI319
aa(lp68
I276
aI284
aI285
aa(lp69
I278
aI280
aI296
aI298
aI302
aI313
aI314
aI319
aI323
aI340
aI343
aI371
aI379
aI380
aI384
aI386
aa(lp70
I282
aI283
aa(lp71
I286
aI292
aI294
aa(lp72
I289
aI295
aI296
aa(lp73
I290
aI291
aa(lp74
I294
aI299
aI300
aI302
aI307
aI318
aI327
aI333
aI350
aI351
aI353
aI363
aI365
aI373
aa(lp75
I295
aI310
aI313
aa(lp76
I301
aI306
aI307
aI308
aa(lp77
I303
aI306
aI311
aI312
aa(lp78
I308
aI311
aI318
aI320
aI327
aI328
aa(lp79
I312
aI315
aI320
aI326
aI329
aI330
aa(lp80
I314
aI350
aI361
aI371
aI379
aI380
aI381
aa(lp81
I316
aI322
aI323
aa(lp82
I326
aI336
aI354
aI360
aI375
aI376
aI377
aa(lp83
I328
aI329
aI333
aI335
aI354
aI355
aa(lp84
I330
aI335
aI336
aa(lp85
I334
aa(lp86
I342
aI344
aI345
aa(lp87
I346
aI356
aI384
aI413
aI437
aI449
aI607
aI611
aI614
aI625
aI655
aI656
aI682
aI763
aI778
aI805
aI806
aa(lp88
I351
aI358
aI361
aI366
aI367
aa(lp89
I353
aI358
aI359
aa(lp90
I355
aI360
aI363
aI364
aa(lp91
I359
aI365
aI366
aI368
aa(lp92
I364
aI367
aI368
aI373
aI375
aI377
aI381
aI382
aI385
aI386
aI387
aI390
aI392
aI415
aI423
aI434
aI437
aI519
aI527
aI542
aI580
aI588
aI596
aI607
aI614
aI619
aI623
aI630
aI660
aI674
aI716
aI720
aI730
aI734
aI746
aI752
aI755
aI758
aI759
aI781
aI864
aI869
aI870
aI883
aI887
aI907
aI922
aI933
aI941
aI944
aI1066
aI1069
aa(lp93
I369
aI372
aa(lp94
I387
aI388
aa(lp95
I396
aI398
aI400
aI406
aI408
aI410
aI415
aI416
aI424
aI427
aI429
aI430
aI436
aI450
aI451
aI455
aI458
aI461
aI462
aI463
aI464
aI465
aI472
aI475
aI482
aI494
aI496
aI504
aI520
aI537
aa(lp96
I398
aI399
aa(lp97
I405
aI406
aI407
aa(lp98
I407
aI408
aI409
aa(lp99
I411
aI412
aa(lp100
I412
aI414
aI418
aI422
aa(lp101
I416
aI417
aa(lp102
I421
aI422
aI433
aI441
aI443
aI445
aI452
aI456
aI457
aa(lp103
I423
aI424
aI448
aI451
aI459
aI461
aI463
aI466
aI470
aI474
aI475
aI479
aI482
aI486
aI497
aI498
aI500
aI503
aI505
aI511
aI512
aI515
aI521
aI537
aI545
aI554
aI566
aI572
aI577
aI578
aI579
aI588
aI589
aa(lp104
I434
aI447
aI448
aa(lp105
I438
aI440
aI441
aI442
aa(lp106
I440
aI442
aI444
aI445
aI452
aI456
aI462
aI471
aI485
aI513
aI516
aI530
aI536
aI538
aI539
aa(lp107
I443
aI446
aI477
aI487
aI508
aI531
aI556
aI582
aI597
aI598
aa(lp108
I447
aI498
aI519
aI527
aI528
aa(lp109
I455
aI459
aI460
aa(lp110
I457
aI485
aI487
aI492
aI493
aa(lp111
I458
aI472
aI474
aa(lp112
I460
aI465
aI466
aI470
aa(lp113
I464
aI471
aI486
aI499
aI522
aI529
aI530
aa(lp114
I479
aI494
aI500
aI501
aa(lp115
I492
aI493
aI508
aI513
aI532
aI552
aI553
aI558
aI561
aI562
aI567
aI581
aI586
aI590
aI595
aI597
aI599
aI606
aI645
aI666
aI667
aI674
aI679
aI692
aI694
aI716
aI717
aa(lp116
I496
aI497
aa(lp117
I499
aI505
aI506
aa(lp118
I501
aI503
aI504
aI507
aa(lp119
I506
aI511
aI522
aI525
aI526
aa(lp120
I507
aI520
aI521
aa(lp121
I512
aI525
aI534
aI535
aa(lp122
I515
aI524
aI528
aI541
aI542
aa(lp123
I516
aI540
aI551
aI553
aa(lp124
I524
aI541
aI579
aI580
aa(lp125
I526
aI529
aI535
aI538
aI544
aI559
aI563
aI585
aI586
aa(lp126
I531
aI532
aI533
aa(lp127
I533
aI581
aI582
aa(lp128
I534
aI545
aI546
aI563
aI564
aI565
aa(lp129
I536
aI540
aI543
aI547
aI548
aa(lp130
I539
aI544
aI547
aI557
aI560
aI561
aa(lp131
I543
aI550
aI551
aI552
aa(lp132
I546
aI554
aI569
aI575
aI583
aI584
aa(lp133
I548
aI550
aI557
aI558
aa(lp134
I559
aI560
aI562
aI567
aa(lp135
I564
aI575
aI576
aa(lp136
I565
aI576
aI584
aI585
aI587
aI590
aa(lp137
I566
aI569
aI570
aa(lp138
I570
aI572
aI583
aI587
aI591
aI595
aa(lp139
I577
aI578
aI589
aI591
aI596
aI599
aa(lp140
I619
aI656
aI657
aa(lp141
I623
aI630
aI657
aI660
aI730
aI759
aI778
aI806
aI832
aI967
aI1006
aI1069
aI1194
aI1246
aI1327
aI1332
aI1411
aI1413
aI1448
aI1471
aI1477
aI1512
aI1586
aI1598
aI1602
aI1607
aI1676
aI1686
aI1698
aI1705
aI1717
aI1724
aI1733
aI1748
aI1809
aI1827
aI1844
aI1848
aI1850
aI1856
aI1857
aa(lp142
I624
aI641
aI642
aI645
aI648
aI651
aI670
aI683
aI835
aI934
aI940
aa(lp143
I638
aI639
aa(lp144
I642
aI644
aI646
aI649
aI650
aI651
aI652
aa(lp145
I646
aI654
aI661
aa(lp146
I648
aI649
aa(lp147
I650
aI661
aI662
aI668
aI678
aI681
aI698
aI699
aI700
aI705
aI709
aI715
aI725
aI739
aI744
aI747
aI762
aI789
aI800
aI807
aI809
aI830
aI835
aI838
aI846
aI928
aI965
aI1030
aI1037
aI1114
aI1146
aI1234
aI1294
aI1345
aI1369
aI1370
aa(lp148
I652
aI668
aI670
aI671
aa(lp149
I663
aI664
aa(lp150
I666
aI679
aI689
aI692
aI694
aI717
aI719
aI734
aI743
aI774
aI781
aI782
aI784
aI785
aa(lp151
I667
aI689
aI770
aI821
aI826
aI827
aI882
aI932
aI940
aI962
aI965
aI1028
aI1112
aI1132
aI1177
aI1185
aI1234
aI1293
aI1369
aI1403
aI1455
aI1589
aI1618
aI1656
aI1660
aI1662
aI1666
aI1667
aI1695
aI1716
aI1762
aI1763
aI1828
aI1843
aI1869
aI1890
aI1898
aI1918
aI1995
aI2117
aI2135
aI2136
aI2146
aI2148
aI2207
aI2252
aI2253
aa(lp152
I671
aI681
aI683
aa(lp153
I684
aI695
aI698
aa(lp154
I690
aI704
aI705
aa(lp155
I695
aI696
aI700
aa(lp156
I697
aI704
aI709
aI710
aa(lp157
I701
aI710
aI715
aI718
aI721
aa(lp158
I703
aI706
aI707
aa(lp159
I706
aI713
aI714
aa(lp160
I708
aI718
aI722
aa(lp161
I719
aI770
aI771
aa(lp162
I720
aI746
aI752
aI758
aI832
aI864
aI869
aI883
aI887
aI907
aI922
aI933
aI941
aI944
aI967
aa(lp163
I721
aI722
aI725
aI726
aI731
aI739
aI740
aa(lp164
I727
aI731
aI741
aI742
aa(lp165
I728
aI742
aI745
aI747
aI748
aa(lp166
I729
aI749
aI756
aI765
aI769
aI783
aI797
aI815
aI822
aI853
aI892
aI894
aa(lp167
I732
aI738
aI748
aI760
aI762
aa(lp168
I737
aI738
aa(lp169
I740
aI741
aI744
aI745
aa(lp170
I743
aI755
aa(lp171
I751
aI756
aI757
aa(lp172
I757
aI764
aI765
aI766
aa(lp173
I771
aI774
aI821
aI826
aI827
aI833
aI867
aI882
aI909
aa(lp174
I782
aI784
aI843
aI867
aI870
aI909
aI962
aI1028
aI1066
aI1094
aI1112
aI1128
aI1132
aI1163
aI1164
aI1166
aI1208
aI1246
aI1277
aI1284
aI1332
aI1355
aI1365
aI1371
aI1383
aI1398
aI1510
aI1558
aI1612
aI1623
aI1624
aI1629
aI1654
aI1664
aI1702
aI1710
aI1768
aI1769
aI1771
aI1784
aI1822
aI1852
aI1853
aI1892
aI1894
aI1936
aI1937
aI1946
aI1972
aI1977
aI1987
aI2022
aI2054
aI2076
aI2118
aI2138
aI2184
aI2185
aI2202
aI2276
aI2288
aI2303
aI2329
aI2376
aI2448
aI2467
aI2469
aI2480
aI2500
aI2508
aI2540
aI2565
aI2609
aI2647
aI2657
aI2665
aI2669
aI2676
aI2687
aI2732
aI2768
aI2840
aI2869
aI2897
aI2963
aI2968
aI2970
aI2984
aI2987
aI3008
aI3014
aI3021
aI3023
aI3092
aI3114
aI3131
aI3132
aI3144
aI3163
aI3176
aI3192
aI3211
aI3212
aI3238
aI3243
aI3252
aI3282
aI3284
aI3285
aI3303
aI3306
aI3307
aI3349
aI3379
aI3418
aI3440
aI3511
aI3515
aI3555
aI3621
aI3657
aa(lp175
I785
aI833
aI843
aa(lp176
I788
aI791
aI801
aI802
aa(lp177
I788
aI812
aI814
aI816
aa(lp178
I790
aI807
aI811
aI824
aa(lp179
I797
aI798
aa(lp180
I800
aI817
aI819
aI824
aI830
aI845
aI846
aI847
aI860
aI862
aI873
aI884
aI906
aI945
aI946
aI983
aI1000
aI1001
aI1019
aI1031
aI1037
aI1076
aI1077
aI1114
aI1146
aI1165
aI1180
aI1181
aI1188
aa(lp181
I801
aI804
aI825
aa(lp182
I802
aI814
aI816
aI818
aI825
aI847
aI848
aI860
aI862
aa(lp183
I803
aI811
aI817
aa(lp184
I809
aI838
aI845
aa(lp185
I822
aI823
aa(lp186
I881
aI884
aI893
aI906
aI914
aI915
aI917
aa(lp187
I891
aI893
aI896
aI900
aI901
aa(lp188
I896
aI902
aI903
aI904
aa(lp189
I900
aI915
aI927
aI929
aa(lp190
I901
aI903
aI921
aI927
aI930
aI936
aa(lp191
I904
aI916
aI921
aI923
aI924
aa(lp192
I914
aI945
aI958
aI964
aI969
aI972
aI976
aa(lp193
I917
aI929
aI936
aI963
aI969
aI970
aI977
aI978
aa(lp194
I923
aI930
aI978
aI988
aI998
aI1007
aI1012
aa(lp195
I924
aI988
aI1007
aI1014
aI1056
aI1057
aa(lp196
I928
aI932
aI934
aa(lp197
I946
aI959
aI964
aI972
aI973
aI983
aI984
aa(lp198
I958
aI959
aa(lp199
I963
aI992
aI1002
aI1012
aI1023
aI1035
aI1056
aI1071
aI1082
aI1083
aa(lp200
I970
aI973
aI976
aI984
aI1001
aI1017
aI1023
aI1035
aI1082
aI1083
aI1095
aI1110
aI1118
aI1138
aI1212
aI1214
aI1222
aI1230
aI1249
aI1263
aI1289
aI1291
aI1308
aI1330
aI1360
aI1422
aI1441
aI1491
aI1498
aI1555
aI1559
aI1582
aI1587
aI1648
aI1661
aI1663
aa(lp201
I977
aI992
aI998
aI1002
aa(lp202
I980
aI981
aa(lp203
I1000
aI1017
aI1019
aI1020
aa(lp204
I1013
aI1016
aa(lp205
I1020
aI1076
aI1077
aI1188
aI1214
aI1228
aI1236
aI1238
aI1239
aI1244
aI1251
aI1261
aI1269
aa(lp206
I1030
aI1031
aa(lp207
I1032
aI1033
aa(lp208
I1036
aI1038
aa(lp209
I1040
aI1045
aI1048
aa(lp210
I1043
aI1045
aI1046
aa(lp211
I1052
aI1053
aa(lp212
I1055
aI1057
aI1071
aI1073
aI1095
aI1101
aI1120
aI1150
aI1154
aI1156
aI1157
aa(lp213
I1091
aI1113
aI1123
aI1131
aI1143
aI1193
aI1198
aI1204
aI1232
aI1248
aI1258
aa(lp214
I1094
aI1128
aI1208
aI1209
aa(lp215
I1101
aI1110
aI1118
aI1127
aI1150
aI1153
aI1155
aa(lp216
I1121
aI1125
aa(lp217
I1127
aI1138
aI1154
aI1155
aI1157
aI1159
aI1171
aI1186
aI1212
aI1213
aI1225
aI1230
aI1231
aI1263
aI1380
aI1394
aI1417
aI1422
aI1425
aI1432
aI1442
aI1464
aI1465
aI1491
aI1552
aI1555
aI1567
aI1583
aI1588
aI1592
aI1593
aa(lp218
I1133
aI1156
aI1161
aI1171
aI1172
aa(lp219
I1142
aI1143
aa(lp220
I1153
aI1159
aa(lp221
I1161
aI1167
aI1168
aa(lp222
I1163
aI1166
aI1178
aI1185
aI1209
aI1277
aI1284
aI1365
aI1371
aI1398
aI1403
aI1510
aI1589
aI1618
aI1624
aI1662
aI1715
aI1716
aa(lp223
I1164
aI1177
aI1178
aa(lp224
I1165
aI1180
aI1181
aI1261
aI1345
aI1376
aI1378
aI1482
aI1505
aI1646
aI1684
aI1762
aI1763
aI1828
aI1843
aI1867
aI1890
aI2002
aI2027
aI2082
aI2191
aI2192
aa(lp225
I1168
aI1172
aI1186
aI1199
aI1200
aI1202
aa(lp226
I1200
aI1276
aI1301
aI1380
aI1390
aI1400
aI1405
aa(lp227
I1202
aI1217
aI1276
aI1297
aI1301
aI1302
aI1315
aI1319
aa(lp228
I1213
aI1222
aI1224
aI1225
aa(lp229
I1218
aI1223
aI1235
aI1270
aI1297
aI1298
aa(lp230
I1224
aI1231
aa(lp231
I1228
aI1236
aI1238
aI1239
aI1244
aI1249
aI1251
aI1269
aI1289
aI1291
aI1308
aI1330
aI1360
aI1376
aI1378
aI1462
aI1482
aI1484
aI1487
aI1498
aI1520
aI1587
aI1601
aa(lp232
I1248
aI1252
aI1253
aa(lp233
I1262
aI1267
aI1278
aI1279
aa(lp234
I1267
aI1268
aa(lp235
I1271
aI1286
aI1298
aI1302
aI1307
aI1310
aI1312
aI1313
aI1314
aa(lp236
I1278
aI1280
aI1290
aI1292
aa(lp237
I1293
aI1294
aa(lp238
I1305
aI1306
aa(lp239
I1307
aI1317
aI1318
aI1320
aI1321
aI1337
aI1338
aa(lp240
I1310
aI1315
aI1347
aI1348
aI1349
aa(lp241
I1312
aI1349
aI1356
aI1358
aI1359
aa(lp242
I1313
aI1350
aI1359
aI1367
aI1368
aa(lp243
I1314
aI1317
aI1341
aI1350
aI1351
aa(lp244
I1319
aI1347
aI1390
aI1401
aI1409
aI1415
aI1416
aa(lp245
I1320
aI1340
aI1341
aI1343
aa(lp246
I1321
aI1373
aI1375
aI1406
aI1474
aI1481
aI1485
aI1489
aI1494
aa(lp247
I1337
aI1340
aI1346
aI1352
aI1353
aa(lp248
I1338
aI1346
aI1372
aI1373
aa(lp249
I1343
aI1351
aI1352
aI1368
aI1385
aI1407
aI1408
aa(lp250
I1348
aI1356
aI1401
aI1402
aa(lp251
I1353
aI1372
aI1375
aI1385
aI1386
aa(lp252
I1355
aI1383
aI1411
aI1558
aI1602
aI1612
aI1623
aI1710
aI1848
aI1853
aI1862
aI1892
aI1894
aI1900
aI1936
aI1937
aI1956
aI1979
aI2045
aI2064
aI2072
aI2075
aI2086
aI2099
aI2102
aI2112
aI2113
aI2140
aI2184
aI2204
aI2216
aI2272
aI2310
aI2314
aI2320
aI2364
aI2372
aI2386
aI2399
aI2407
aI2430
aI2436
aI2440
aI2441
aI2449
aI2450
aI2494
aI2498
aI2626
aI2668
aI2750
aI2766
aI2774
aI2782
aI2785
aI2819
aI2832
aa(lp253
I1358
aI1367
aI1402
aI1407
aI1409
aI1421
aI1434
aI1450
aa(lp254
I1370
aI1455
aI1656
aI1659
aI1660
aI1684
aI1695
aa(lp255
I1386
aI1406
aI1408
aI1434
aI1452
aI1453
aI1459
aI1460
aI1466
aI1478
aI1479
aa(lp256
I1394
aI1400
aI1405
aI1415
aI1416
aI1418
aI1421
aI1465
aI1591
aI1594
aI1626
aI1627
aa(lp257
I1417
aI1418
aa(lp258
I1425
aI1432
aI1464
aI1552
aI1583
aI1588
aI1626
aI1637
aI1644
aI1681
aI1718
aI1746
aI1779
aI1780
aa(lp259
I1441
aI1442
aa(lp260
I1447
aI1448
aa(lp261
I1450
aI1452
aI1476
aI1537
aI1591
aI1595
aI1627
aI1681
aI1697
aI1746
aI1780
aI1790
aI1793
aI1817
aI1833
aI1834
aI1835
aI1840
aI1864
aI1897
aI1923
aI1971
aI1998
aI2004
aI2017
aI2031
aI2036
aI2058
aI2092
aI2094
aI2107
aI2124
aI2125
aI2171
aI2186
aI2196
aI2197
aa(lp262
I1453
aI1466
aI1476
aI1478
aI1493
aI1495
aa(lp263
I1459
aI1460
aI1468
aI1473
aI1481
aI1496
aI1497
aa(lp264
I1462
aI1484
aI1487
aI1505
aI1520
aI1601
aI1646
aI1648
aI1677
aI1765
aI1778
aI1803
aI1832
aI1867
aI1967
aI2002
aI2003
aa(lp265
I1468
aI1479
aI1493
aI1533
aI1534
aa(lp266
I1473
aI1534
aI1543
aI1579
aI1580
aI1581
aa(lp267
I1480
aI1511
aI1512
aa(lp268
I1485
aI1497
aI1562
aI1563
aI1570
aI1571
aa(lp269
I1489
aI1500
aI1503
aI1504
aa(lp270
I1494
aI1503
aI1515
aI1563
aI1571
aI1606
aI1608
aI1621
aI1622
aa(lp271
I1495
aI1533
aI1537
aI1579
aI1580
aI1650
aI1683
aI1697
aI1713
aI1736
aI1750
aI1759
aI1767
aI1800
aI1834
aI1839
aa(lp272
I1496
aI1543
aI1561
aI1562
aa(lp273
I1499
aI1511
aI1523
aI1531
aI1574
aI1586
aI1598
aI1607
aI1611
aI1651
aI1674
aI1675
aI1676
aa(lp274
I1504
aI1515
aI1517
aI1518
aI1521
aa(lp275
I1517
aI1556
aI1606
aI1616
aa(lp276
I1521
aI1556
aI1557
aa(lp277
I1522
aI1523
aa(lp278
I1559
aI1566
aI1567
aa(lp279
I1561
aI1570
aI1581
aI1608
aI1621
aI1636
aI1640
aI1650
aI1653
aI1683
aI1690
aI1708
aI1721
aI1722
aa(lp280
I1566
aI1582
aI1592
aI1643
aI1661
aI1718
aI1728
aI1738
aI1741
aI1743
aI1787
aI1816
aI2203
aI2262
aI2263
aa(lp281
I1573
aI1574
aa(lp282
I1593
aI1637
aI1643
aI1644
aa(lp283
I1629
aI1654
aI1715
aI1731
aI1805
aI1811
aI1869
aI1875
aI1876
aa(lp284
I1659
aI1666
aI1667
aa(lp285
I1663
aI1677
aI1765
aI1778
aI1803
aI1832
aI1967
aI2069
aI2078
aI2203
aI2330
aI2394
aI2568
aI2582
aa(lp286
I1664
aI1702
aI1731
aI1768
aI1771
aI1776
aI1784
aI1805
aI1811
aI1822
aI1823
aI1852
aI1855
aa(lp287
I1673
aI1674
aa(lp288
I1698
aI1699
aI1700
aa(lp289
I1699
aI1705
aI1707
aa(lp290
I1708
aI1713
aI1721
aI1736
aI1745
aI1752
aI1753
aI1756
aI1757
aa(lp291
I1728
aI1738
aI1740
aI1741
aa(lp292
I1740
aI1743
aI1779
aI1787
aI1816
aI1817
aI2021
aI2237
aI2263
aI2266
aI2269
aI2278
aI2318
aI2321
aI2452
aI2474
aI2532
aI2533
aI2536
aI2552
aI2553
aI2574
aI2726
aI2861
aI2862
aa(lp293
I1750
aI1752
aI1759
aI1767
aI1781
aI1798
aI1807
aI1814
aI1818
aI1820
aI1837
aI1846
aI1847
aa(lp294
I1753
aI1756
aI1814
aI1815
aa(lp295
I1755
aI1783
aI1804
aI1808
aI1809
aa(lp296
I1757
aI1799
aI1815
aI1818
aI1819
aa(lp297
I1769
aI1776
aa(lp298
I1781
aI1798
aI1800
aI1807
aI1858
aI1859
aa(lp299
I1782
aI1783
aa(lp300
I1790
aI1793
aI1833
aI1839
aI1858
aI1864
aI1879
aI1880
aI1897
aI1910
aI1923
aI1924
aI1925
aI1927
aI1931
aa(lp301
I1808
aI1826
aI1827
aa(lp302
I1819
aI1820
aI1837
aI1871
aI1877
aI1883
aI1884
aa(lp303
I1823
aI1875
aI1893
aa(lp304
I1835
aI1840
aI1969
aI1970
aI1971
aI2021
aI2091
aI2107
aI2171
aI2186
aI2235
aI2237
aI2243
aI2244
aI2269
aI2278
aa(lp305
I1846
aI1851
aI1859
aI1872
aI1880
aI1891
aI1904
aI1905
aa(lp306
I1847
aI1851
aI1870
aI1871
aa(lp307
I1850
aI1861
aI1862
aa(lp308
I1855
aI1876
aI1893
aI1918
aI2135
aI2147
aI2207
aI2252
aI2276
aI2277
aI2289
aI2344
aI2348
aI2352
aI2353
aI2416
aI2480
aI2481
aa(lp309
I1857
aI1861
aI1900
aI1902
aI1903
aa(lp310
I1870
aI1872
aI1877
aI1881
aI1883
aI1906
aI1921
aI1922
aa(lp311
I1879
aI1891
aI1910
aI1911
aa(lp312
I1881
aI1905
aI1906
aI1921
aI1932
aI1942
aI1953
aI1962
aI1968
aI1973
aI1990
aI1991
aI1992
aa(lp313
I1898
aI1995
aI2191
aI2230
aI2245
aI2604
aI2620
aI2634
aa(lp314
I1903
aI1956
aI1979
aI1999
aI2000
aa(lp315
I1904
aI1911
aI1924
aI1925
aI1927
aI1931
aI1932
aI1990
aI2001
aI2004
aI2009
aI2017
aI2019
aI2028
aI2031
aI2034
aI2035
aI2043
aI2047
aI2057
aI2084
aI2095
aI2096
aa(lp316
I1946
aI2032
aI2054
aI2076
aI2111
aI2202
aI2303
aI2329
aI2376
aI2451
aI2468
aI2500
aI2540
aI2565
aI2566
aI2577
aI2612
aI2636
aI2647
aI2664
aI2669
aI2676
aI2687
aI2765
aI2772
aI2840
aI2844
aI2856
aa(lp317
I1953
aI1957
aI1963
aI1968
aI1974
aI1983
aI1989
aI2029
aI2030
aa(lp318
I1957
aI1962
aI1963
aa(lp319
I1969
aI1970
aI1998
aI2006
aa(lp320
I1972
aI1977
aI1982
aa(lp321
I1973
aI1974
aI1983
aI1984
aI1988
aa(lp322
I1980
aI2000
aI2007
aI2045
aI2064
aI2066
aI2072
aI2074
aI2075
aI2085
aI2086
aI2087
aa(lp323
I1980
aI1981
aa(lp324
I1982
aI2022
aI2138
aI2185
aI2216
aI2310
aI2440
aI2448
aI2626
aI2761
aI2832
aI2887
aI2905
aI2996
aI3074
aI3327
aI3329
aI3333
aI3536
aI3545
aI3591
aI3597
aI3642
aI3648
aI3674
aI3702
aI3730
aI3731
aI3739
aI3754
aI3816
aI3828
aI3864
aI3865
aI3911
aI3958
aI3987
aI3988
aa(lp325
I1984
aI1992
aI1996
aa(lp326
I1987
aI2032
aI2111
aI2118
aa(lp327
I1988
aI1991
aI1996
aI2001
aI2009
aI2019
aI2028
aI2029
aI2035
aI2038
aI2048
aI2050
aI2052
aa(lp328
I2003
aI2027
aI2069
aI2082
aI2192
aI2230
aI2231
aa(lp329
I2006
aI2091
aI2092
aa(lp330
I2030
aI2038
aI2044
aI2056
aI2063
aI2090
aI2141
aI2142
aI2157
aI2162
aI2172
aI2190
aI2205
aI2210
aI2211
aI2212
aI2213
aI2219
aI2220
aa(lp331
I2034
aI2043
aI2050
aI2057
aI2070
aI2080
aI2081
aa(lp332
I2036
aI2047
aI2049
aI2108
aI2119
aI2120
aa(lp333
I2048
aI2142
aI2150
aI2194
aI2195
aa(lp334
I2049
aI2119
aI2125
aI2127
aI2128
aI2129
aa(lp335
I2051
aI2056
aI2063
aI2110
aI2154
aI2155
aa(lp336
I2052
aI2070
aI2081
aI2088
aI2114
aI2130
aI2131
aI2194
aI2218
aI2241
aI2254
aI2255
aa(lp337
I2058
aI2093
aI2094
aa(lp338
I2066
aI2087
aI2098
aI2112
aI2113
aa(lp339
I2074
aI2098
aI2099
aa(lp340
I2078
aI2231
aI2245
aI2330
aI2379
aI2394
aI2435
aI2465
aI2530
aI2531
aa(lp341
I2080
aI2084
aI2088
aI2104
aa(lp342
I2090
aI2110
aI2141
aI2155
aI2157
aI2166
aI2172
aI2173
aa(lp343
I2093
aI2124
aI2127
aI2128
aI2181
aI2197
aI2226
aI2229
aI2233
aI2274
aI2293
aI2294
aI2297
aI2300
aI2306
aI2356
aI2357
aI2365
aI2420
aI2439
aI2457
aI2460
aa(lp344
I2095
aI2108
aI2109
aa(lp345
I2096
aI2104
aI2109
aI2120
aI2129
aI2130
aI2152
aI2181
aI2182
aI2200
aI2208
aI2209
aa(lp346
I2114
aI2131
aI2152
aI2200
aI2209
aI2241
aI2254
aI2291
aI2292
aa(lp347
I2117
aI2136
aI2146
aI2147
aI2148
aa(lp348
I2139
aI2140
aa(lp349
I2145
aI2154
aI2166
aI2167
aI2224
aI2259
aI2267
aI2283
aI2316
aI2319
aI2331
aI2332
aa(lp350
I2150
aI2162
aI2195
aI2210
aI2218
aI2221
aI2249
aI2255
aI2260
aI2292
aI2304
aI2355
aI2358
aI2359
aI2360
aI2361
aI2370
aI2371
aI2418
aI2419
aa(lp351
I2167
aI2173
aI2212
aI2215
aI2223
aI2224
aa(lp352
I2182
aI2208
aI2226
aI2233
aI2275
aI2291
aI2355
aI2365
aI2439
aI2456
aI2457
aI2495
aI2537
aI2554
aI2555
aI2560
aI2561
aI2583
aI2645
aI2653
aI2670
aI2734
aI2762
aI2794
aI2822
aI2826
aI2836
aI2854
aI2859
aI2865
aI2913
aI2917
aI2921
aI2922
aI2928
aI2929
aa(lp353
I2190
aI2205
aI2211
aI2221
aI2222
aa(lp354
I2196
aI2229
aI2244
aI2246
aI2247
aI2248
aa(lp355
I2213
aI2219
aI2222
aI2249
aI2260
aI2261
aa(lp356
I2215
aI2220
aI2238
aI2261
aI2271
aI2282
aI2304
aI2319
aI2340
aI2359
aI2362
aI2385
aI2400
aI2404
aI2405
aa(lp357
I2223
aI2238
aI2258
aI2259
aa(lp358
I2235
aI2243
aI2246
aI2295
aI2318
aI2321
aI2337
aI2338
aI2342
aa(lp359
I2247
aI2295
aI2296
aa(lp360
I2248
aI2293
aI2296
aI2338
aI2349
aI2351
aa(lp361
I2253
aI2344
aI2476
aI2510
aI2604
aI2620
aI2658
aI2659
aa(lp362
I2258
aI2271
aI2282
aI2283
aa(lp363
I2262
aI2266
aI2518
aI2582
aI2619
aI2651
aI2660
aI2716
aI2728
aI2807
aI2851
aI2889
aI3101
aI3244
aI3256
aI3268
aI3401
aI3420
aI3421
aa(lp364
I2274
aI2275
aa(lp365
I2277
aI2288
aI2289
aa(lp366
I2294
aI2297
aI2300
aI2306
aI2349
aI2374
aI2380
aI2396
aI2397
aI2444
aI2459
aI2472
aI2487
aI2501
aa(lp367
I2320
aI2372
aI2373
aI2407
aa(lp368
I2326
aI2332
aI2432
aI2511
aI2522
aI2586
aI2596
aI2597
aa(lp369
I2331
aI2340
aI2385
aI2405
aI2447
aI2507
aI2511
aI2526
aI2538
aa(lp370
I2337
aI2342
aI2351
aI2374
aI2444
aI2452
aI2459
aI2471
aI2524
aI2574
aI2575
aI2595
aI2602
aa(lp371
I2348
aI2390
aI2416
aI2417
aa(lp372
I2352
aI2390
aI2391
aa(lp373
I2353
aI2391
aI2417
aI2476
aI2481
aI2510
aI2516
aI2529
aI2551
aI2618
aI2666
aI2701
aI2745
aI2768
aI2769
aa(lp374
I2356
aI2380
aI2396
aI2397
aI2398
aa(lp375
I2357
aI2398
aI2420
aI2460
aI2471
aI2472
aI2487
aI2495
aI2501
aI2524
aI2595
aI2675
aI2693
aI2695
aI2734
aI2779
aI2802
aI2809
aI2825
aI2854
aI2894
aI2908
aI2911
aI2912
aI2931
aI2932
aa(lp376
I2358
aI2360
aI2362
aI2383
aI2400
aI2410
aI2425
aI2433
aI2445
aI2454
aI2458
aI2490
aI2491
aI2492
aI2493
aa(lp377
I2361
aI2424
aI2456
aI2482
aI2502
aI2521
aI2561
aI2563
aI2564
aI2570
aI2578
aa(lp378
I2364
aI2373
aI2386
aI2427
aI2430
aI2436
aI2441
aI2449
aI2450
aI2494
aI2498
aI2504
aI2668
aI2700
aI2736
aI2750
aI2766
aI2774
aI2782
aI2785
aI2819
aI2887
aI2905
aI3003
aI3009
aI3074
aI3327
aI3329
aI3333
aI3536
aI3591
aI3633
aI3642
aI3648
aI3674
aI3754
aI3816
aI3828
aI3864
aI3923
aI3999
aI4105
aI4114
aI4157
aI4233
aI4236
aI4283
aI4408
aI4443
aI4459
aI4559
aI4563
aI4570
aI4592
aI4623
aI4632
aI4650
aI4724
aI4728
aI4742
aI4750
aI4755
aI4756
aI4769
aI4781
aI4793
aI4800
aI4828
aI4845
aI4854
aI4858
aI4896
aI4913
aI4921
aI4929
aI4930
aI4947
aI4966
aI4974
aI4998
aI5011
aI5024
aI5068
aI5069
aI5076
aI5080
aI5084
aI5128
aI5210
aI5269
aI5342
aI5343
aI5438
aI5506
aI5520
aI5521
aa(lp379
I2370
aI2382
aI2410
aI2419
aI2422
aI2425
aI2482
aI2483
aa(lp380
I2371
aI2382
aI2383
aa(lp381
I2379
aI2435
aI2464
aI2530
aI2557
aI2621
aI2634
aI2659
aI2728
aI2851
aI2898
aI3015
aI3038
aI3286
aI3288
aI3297
aI3320
aI3322
aI3358
aI3363
aI3366
aI3369
aI3370
aI3387
aI3399
aI3400
aI3411
aI3416
aa(lp382
I2399
aI2427
aI2503
aI2689
aI2700
aI2735
aI2749
aI3003
aI3009
aI3020
aa(lp383
I2404
aI2445
aI2446
aI2447
aa(lp384
I2418
aI2422
aI2424
aa(lp385
I2432
aI2522
aI2523
aa(lp386
I2433
aI2458
aI2490
aI2512
aI2514
aa(lp387
I2446
aI2454
aI2507
aI2512
aI2517
aa(lp388
I2451
aI2466
aI2467
aa(lp389
I2464
aI2465
aa(lp390
I2466
aI2468
aI2469
aa(lp391
I2474
aI2518
aI2532
aI2535
aI2552
aI2553
aI2679
aI2680
aI2726
aI2739
aI2740
aa(lp392
I2483
aI2491
aI2502
aI2505
aI2506
aa(lp393
I2492
aI2506
aI2544
aI2590
aI2599
aI2608
aa(lp394
I2493
aI2514
aI2517
aI2538
aI2590
aI2607
aI2608
aI2623
aI2628
aI2643
aI2644
aI2663
aI2697
aI2753
aI2755
aI2783
aI2795
aI2810
aI2827
aI2831
aI2852
aI2870
aI2871
aI2885
aI2925
aI2945
aI2973
aI2985
aI2986
aa(lp395
I2503
aI2504
aa(lp396
I2505
aI2521
aI2543
aI2544
aa(lp397
I2508
aI2761
aI2997
aI3114
aI3238
aI3243
aI3471
aI3521
aI3603
aI3682
aI3709
aI3731
aI3747
aI3815
aI3839
aI3849
aI3852
aI3856
aI3868
aI3885
aI3908
aI3940
aI3952
aI4181
aI4205
aI4223
aI4340
aI4422
aI4481
aI4516
aI4539
aI4599
aI4604
aI4665
aI4675
aI4684
aI4690
aa(lp398
I2516
aI2529
aI2551
aI2618
aI2658
aI2666
aI2701
aI2745
aI2769
aI2869
aI2898
aI2955
aa(lp399
I2526
aI2596
aI2610
aI2692
aI2704
aI2743
aI2747
aI2753
aI2756
aI2760
aa(lp400
I2531
aI2557
aI2568
aI2619
aI2621
aa(lp401
I2537
aI2546
aI2547
aa(lp402
I2543
aI2563
aI2581
aI2599
aI2607
aI2622
aI2623
aI2627
aI2631
aI2632
aa(lp403
I2546
aI2547
aI2554
aI2571
aI2583
aI2645
aI2653
aI2662
aI2670
aI2697
aI2724
aI2762
aI2763
aa(lp404
I2555
aI2558
aI2571
aI2572
aa(lp405
I2558
aI2560
aI2564
aI2572
aI2578
aI2580
aI2631
aI2635
aI2662
aI2663
aa(lp406
I2566
aI2640
aI2656
aI2657
aa(lp407
I2570
aI2580
aI2581
aa(lp408
I2575
aI2602
aI2675
aI2752
aI2799
aI2800
aI2862
aI2866
aI2867
aa(lp409
I2577
aI2612
aI2616
aI2629
aI2639
aI2640
aa(lp410
I2609
aI2732
aI2765
aI2772
aI2844
aI2856
aI2897
aI2994
aI3027
aI3039
aI3040
aI3055
aI3070
aI3088
aI3096
aI3097
aI3136
aI3198
aI3203
aI3223
aI3230
aI3236
aI3280
aI3294
aI3349
aI3444
aI3523
aI3528
aI3546
aI3555
aI3695
aI4173
aI4197
aI4198
aI4202
aI4245
aI4344
aI4391
aI4392
aa(lp411
I2616
aI2629
aI2636
aI2637
aa(lp412
I2622
aI2627
aI2628
aI2632
aI2635
aI2641
aI2644
aa(lp413
I2637
aI2639
aI2656
aI2664
aI2665
aa(lp414
I2641
aI2643
aa(lp415
I2651
aI2660
aI2679
aI2681
aI2682
aI2703
aa(lp416
I2680
aI2681
aI2731
aI2739
aI2816
aI2900
aI2940
aI2969
aI3024
aI3042
aI3044
aI3048
aa(lp417
I2682
aI2716
aI2733
aI2807
aI2858
aI2882
aI2889
aI2959
aI3063
aI3089
aI3117
aI3181
aI3182
aI3202
aI3256
aI3263
aa(lp418
I2692
aI2771
aI2881
aI2891
aI2892
aa(lp419
I2693
aI2695
aI2752
aI2800
aI2802
aI2808
aI2809
aa(lp420
I2703
aI2731
aI2733
aI2858
aI2882
aI2883
aa(lp421
I2704
aI2743
aI2771
aI2860
aI2875
aI2876
aa(lp422
I2715
aI2748
aI2749
aa(lp423
I2724
aI2763
aI2795
aI2822
aI2830
aI2831
aa(lp424
I2735
aI2736
aa(lp425
I2740
aI2816
aI2861
aI2866
aI2900
aI2969
aI3024
aI3042
aI3048
aI3075
aI3090
aI3117
aI3146
aI3182
aI3195
aI3354
aI3373
aI3454
aI3476
aI3503
aI3519
aI3550
aI3571
aI3590
aI3669
aI3772
aI3780
aI3830
aI3869
aI3901
aI3902
aa(lp426
I2747
aI2755
aI2756
aI2760
aI2783
aI2810
aI2827
aI2860
aI2870
aI2872
aI2873
aI2874
aa(lp427
I2779
aI2794
aI2825
aI2826
aa(lp428
I2799
aI2808
aI2894
aI2911
aI2952
aI3071
aI3119
aI3154
aI3168
aI3204
aI3261
aI3290
aI3321
aI3324
aI3348
aI3375
aI3473
aI3500
aI3564
aI3611
aI3624
aI3676
aI3708
aa(lp429
I2830
aI2836
aI2852
aI2859
aI2923
aI2924
aI2936
aI2937
aI2962
aI2972
aI2989
aI3060
aI3061
aa(lp430
I2865
aI2923
aI2929
aI2953
aI2954
aa(lp431
I2867
aI3146
aI3149
aI3154
aa(lp432
I2871
aI2885
aI2925
aI2985
aI3061
aI3087
aI3127
aI3187
aI3197
aI3201
aI3226
aI3271
aI3309
aI3310
aa(lp433
I2872
aI2875
aI2880
aI2891
aI2938
aI2949
aI2978
aI2991
aI3005
aI3029
aI3208
aI3221
aI3255
aI3361
aI3462
aI3606
aI3620
aI3907
aI3928
aI3984
aI4019
aI4125
aI4212
aI4227
aI4300
aI4329
aI4363
aI4401
aI4447
aI4466
aI4494
aI4534
aI4682
aI4739
aI4774
aI4900
aI4906
aI4945
aI4959
aI5009
aI5014
aI5017
aI5018
aI5106
aI5149
aI5230
aI5243
aI5266
aI5337
aI5460
aI5573
aI5895
aI6080
aI6237
aI6506
aI6547
aI6667
aI6791
aI6826
aI6827
aa(lp434
I2873
aI2945
aI2946
aa(lp435
I2874
aI2938
aI2946
aI2949
aI2973
aI2975
aI2979
aI2981
aI2982
aI2983
aa(lp436
I2876
aI2880
aI2881
aa(lp437
I2883
aI2940
aI2959
aI3044
aI3063
aI3075
aI3089
aI3090
aa(lp438
I2908
aI2917
aI2927
aI2930
aI2931
aI2942
aI2948
aI3002
aI3049
aI3058
aI3077
aI3082
aI3085
aI3086
aI3139
aI3147
aI3152
aa(lp439
I2912
aI2952
aI3002
aI3049
aI3052
aI3071
aI3080
aI3135
aI3147
aI3168
aI3169
aa(lp440
I2913
aI2927
aI2932
aI2948
aa(lp441
I2921
aI2930
aI2942
aI2943
aa(lp442
I2922
aI2928
aI2943
aI2953
aI2956
aI2988
aI3058
aI3059
aa(lp443
I2924
aI2936
aI2954
aI2956
aI2957
aa(lp444
I2937
aI2957
aI2962
aI2972
aI2988
aI2989
aI3060
aI3103
aI3113
aI3127
aI3158
aI3159
aI3186
aI3187
aa(lp445
I2955
aI2984
aI3015
aI3193
aI3206
aI3369
aI3377
aI3419
aI3477
aI3485
aI3532
aI3638
aI3659
aI3711
aI3759
aI3760
aI3821
aI3824
aI3827
aI3834
aI3837
aI3859
aI3896
aI3897
aI3900
aI3925
aI3938
aI3969
aI3972
aI3978
aI3996
aa(lp446
I2963
aI2968
aI2970
aI2987
aI3008
aI3040
aI3057
aI3066
aI3078
aI3099
aI3100
aI3162
aI3209
aI3237
aI3242
aI3249
aI3265
aI3267
aa(lp447
I2975
aI2986
aI3068
aI3073
aI3081
aI3087
aI3140
aI3141
aa(lp448
I2978
aI2983
aI3016
aa(lp449
I2979
aI3032
aI3068
aI3069
aa(lp450
I2981
aI3025
aI3032
aI3033
aI3035
aa(lp451
I2982
aI2991
aI3016
aI3025
aI3035
aI3157
aI3160
aI3171
aI3172
aI3207
aI3208
aa(lp452
I2994
aI3027
aI3039
aI3055
aI3057
aI3097
aI3106
aI3107
aa(lp453
I2996
aI2997
aa(lp454
I3014
aI3121
aI3237
aI3351
aI3396
aI3404
aI3429
aI3433
aI3441
aI3448
aI3513
aI3594
aI3609
aI3634
aI3752
aI3762
aI3789
aI3794
aI3802
aI3838
aI3894
aI3895
aa(lp455
I3021
aI3144
aI3193
aI3194
aa(lp456
I3023
aI3092
aI3121
aI3131
aI3134
aI3166
aI3258
aI3331
aI3335
aI3390
aI3429
aI3434
aI3437
aI3448
aa(lp457
I3033
aI3069
aI3073
aI3081
aI3124
aI3129
aI3156
aI3157
aa(lp458
I3038
aI3101
aI3244
aI3268
aI3275
aI3276
aI3292
aI3293
aa(lp459
I3052
aI3077
aI3080
aa(lp460
I3059
aI3082
aI3103
aI3104
aa(lp461
I3066
aI3100
aI3108
aI3151
aI3162
aa(lp462
I3070
aI3088
aI3096
aI3106
aI3130
aI3183
aI3214
aI3220
aI3230
aI3236
aI3280
aI3294
aI3444
aI3445
aa(lp463
I3078
aI3099
aI3107
aI3108
aI3151
aI3209
aI3214
aI3219
aa(lp464
I3085
aI3139
aI3148
aI3150
aa(lp465
I3086
aI3104
aI3113
aI3148
aI3262
aI3290
aI3321
aI3355
aI3394
aa(lp466
I3119
aI3135
aI3204
aa(lp467
I3124
aI3141
aI3188
aI3196
aa(lp468
I3129
aI3179
aI3189
aI3196
aI3218
aI3251
aI3266
aI3291
aI3323
aI3325
aI3326
aa(lp469
I3130
aI3136
aI3137
aa(lp470
I3132
aI3134
aI3163
aI3257
aI3282
aI3302
aI3305
aI3331
aI3332
aa(lp471
I3137
aI3183
aI3198
aI3203
aI3220
aI3223
aa(lp472
I3140
aI3188
aI3197
aI3217
aI3218
aa(lp473
I3149
aI3354
aI3454
aI3473
aI3564
aI3570
aI3797
aI3844
aI3869
aI3875
aa(lp474
I3150
aI3152
aI3169
aI3261
aI3262
aa(lp475
I3156
aI3160
aI3179
aI3180
aa(lp476
I3158
aI3229
aI3314
aI3355
aI3356
aI3422
aI3423
aa(lp477
I3159
aI3186
aI3201
aI3229
aI3314
aI3392
aI3423
aI3427
aI3428
aa(lp478
I3166
aI3257
aI3258
aa(lp479
I3171
aI3180
aI3189
aI3190
aa(lp480
I3172
aI3190
aI3207
aI3251
aI3255
aI3266
aI3273
aI3326
aI3359
aI3360
aa(lp481
I3176
aI3224
aI3240
aI3252
aI3253
aa(lp482
I3181
aI3195
aI3202
aI3263
aI3373
aI3401
aI3421
aI3459
aI3476
aI3503
aI3506
aI3519
aI3547
aI3595
aI3604
aI3772
aI3823
aI3973
aI4054
aI4109
aI4150
aI4151
aa(lp483
I3192
aI3194
aI3206
aI3212
aI3225
aI3240
aI3308
aI3406
aI3419
aI3449
aI3457
aI3477
aI3485
aI3502
aI3563
aI3638
aI3649
aI3659
aa(lp484
I3211
aI3224
aI3225
aa(lp485
I3217
aI3271
aI3291
aI3310
aI3334
aI3338
aI3339
aa(lp486
I3219
aI3267
aI3313
aI3350
aI3396
aI3404
aI3433
aI3441
aI3445
aI3513
aI3523
aI3528
aI3592
aI3594
aI3609
aI3622
aI3634
aI3748
aI3764
aI3776
aI3826
aI3891
aI3894
aI3913
aI3926
aI3927
aI3942
aI4014
aI4033
aI4099
aI4103
aI4136
aI4137
aa(lp487
I3226
aI3309
aI3334
aI3386
aI3392
aI3393
aa(lp488
I3242
aI3249
aI3265
aI3313
aI3350
aI3351
aa(lp489
I3253
aI3307
aI3308
aI3336
aI3345
aI3406
aI3412
aI3449
aI3457
aI3502
aI3538
aI3568
aI3655
aI3687
aI3715
aI3738
aI3770
aI3956
aI3990
aI3992
aI4002
aI4047
aI4123
aI4124
aa(lp490
I3273
aI3360
aI3462
aI3470
aI3496
aI3606
aI3620
aI3690
aI3718
aI3877
aI3907
aI4006
aI4009
aI4018
aI4019
aa(lp491
I3275
aI3277
aI3322
aI3343
aI3395
aa(lp492
I3278
aI3292
aI3343
aI3344
aa(lp493
I3284
aI3371
aI3430
aI3447
aI3471
aI3472
aa(lp494
I3285
aI3303
aI3371
aI3379
aI3418
aI3430
aI3440
aI3447
aI3490
aI3511
aI3515
aI3580
aI3608
aI3621
aI3657
aI3692
aI3763
aI3767
aI3775
aI3782
aI3791
aI3832
aI3853
aI3860
aI3885
aI3887
aI3908
aI3909
aI3937
aI3965
aI4083
aI4166
aI4198
aI4245
aI4267
aI4320
aI4323
aI4438
aI4483
aI4491
aa(lp495
I3286
aI3288
aI3370
aI3377
aI3378
aa(lp496
I3293
aI3344
aI3395
aI3400
aI3420
aI3459
aI3505
aI3508
aa(lp497
I3297
aI3320
aI3378
aI3411
aI3532
aI3533
aa(lp498
I3302
aI3305
aI3306
aI3332
aI3335
aI3336
aI3345
aI3390
aI3412
aI3452
aI3557
aI3567
aI3568
aa(lp499
I3323
aI3339
aI3439
aI3482
aI3489
aI3560
aI3575
aI3576
aa(lp500
I3324
aI3356
aI3376
aI3394
aI3422
aI3427
aI3469
aI3500
aI3611
aI3617
aI3684
aI3753
aI3805
aa(lp501
I3325
aI3359
aI3470
aI3482
aI3486
aI3492
aI3493
aI3494
aa(lp502
I3338
aI3386
aI3438
aI3439
aa(lp503
I3348
aI3375
aI3376
aa(lp504
I3362
aI3366
aI3387
aI3399
aI3416
aI3505
aI3533
aI3647
aI3673
aI3704
aI3711
aI3712
aI3744
aI3745
aa(lp505
I3393
aI3428
aI3438
aI3469
aI3559
aI3560
aa(lp506
I3409
aI3414
aI3464
aI3574
aI3598
aI3635
aI3882
aI3917
aI3928
aI3929
aa(lp507
I3425
aI3450
aI3464
aI3579
aI3632
aI3635
aI3636
aa(lp508
I3434
aI3452
aI3480
aI3529
aI3557
aI3562
aI3566
aI3567
aI3645
aI3655
aI3678
aI3722
aI3738
aI3915
aI3939
aI3945
aI3989
aI3990
aa(lp509
I3437
aI3480
aI3529
aI3562
aI3566
aI3645
aI3678
aI3722
aI3752
aI3762
aI3789
aI3803
aI3833
aI3838
aI3854
aI3861
aI3862
aI3873
aI3874
aI3914
aI3915
aa(lp510
I3451
aI3632
aI3667
aI3668
aa(lp511
I3472
aI3490
aI3521
aI3522
aa(lp512
I3486
aI3496
aI3572
aI3577
aa(lp513
I3489
aI3492
aI3576
aI3600
aI3639
aI3640
aI3680
aI3681
aa(lp514
I3493
aI3494
aI3572
aI3600
aI3601
aa(lp515
I3506
aI3508
aI3547
aI3595
aI3604
aI3704
aI4054
aI4060
aI4109
aI4143
aI4150
aI4377
aI4382
aI4436
aI4442
aI4488
aI4513
aI4914
aI4951
aI4963
aI4967
aI4970
aI4971
aI4978
aI5022
aI5023
aI5044
aI5047
aa(lp516
I3522
aI3580
aI3603
aI3607
aI3608
aa(lp517
I3538
aI3563
aI3687
aI3688
aa(lp518
I3545
aI3702
aI3739
aI3784
aI3788
aI3814
aI3911
aI3960
aI3961
aa(lp519
I3546
aI3592
aI3622
aI3695
aI3800
aI3842
aI3892
aI3920
aI3977
aI4026
aI4098
aI4136
aI4173
aI4197
aI4221
aI4225
aI4238
aI4246
aI4247
aI4250
aI4332
aI4341
aI4342
aa(lp520
I3550
aI3571
aI3590
aI3669
aI3780
aI3823
aI3830
aI3973
aI4151
aI4436
aI4513
aI4873
aI4914
aI4996
aI5025
aI5082
aI5147
aI5225
aI5318
aI5339
aI5374
aI5441
aI5471
aI5552
aI5664
aI5673
aI5768
aI5778
aI5821
aI5835
aI5906
aI5912
aI5940
aI5941
aI5998
aI5999
aa(lp521
I3559
aI3575
aI3617
aI3680
aI3756
aI3870
aI3935
aI3950
aI3974
aI3975
aa(lp522
I3570
aI3624
aI3708
aI3797
aI3831
aI3844
aI3875
aI3902
aI3986
aI4055
aI4134
aI4183
aI4243
aI4279
aI4305
aI4318
aI4493
aI4555
aI4758
aI4946
aI5029
aI5040
aI5058
aI5070
aI5090
aI5099
aI5104
aI5132
aI5141
aI5148
aI5206
aI5339
aI5374
aI5418
aI5476
aI5554
aI5619
aI5753
aI5862
aI5864
aI5865
aa(lp523
I3574
aI3579
aI3598
aa(lp524
I3577
aI3601
aI3640
aI3689
aI3690
aI3766
aI3773
aI3779
aI3786
aI3787
aI3799
aI3879
aI3880
aa(lp525
I3597
aI3633
aa(lp526
I3607
aI3682
aI3692
aI3694
aa(lp527
I3636
aI3667
aI3882
aI3917
aI3929
aI3944
aI3979
aI3984
aI4032
aI4040
aa(lp528
I3639
aI3681
aI3756
aI3799
aI3870
aI3871
aI3951
aI3953
aI3974
aI4016
aI4024
aI4085
aI4116
aI4161
aI4162
aa(lp529
I3647
aI3673
aI3712
aI3744
aI3745
aI3837
aI3878
aI3997
aI4059
aI4060
aI4072
aI4084
aI4164
aI4399
aI4402
aI4468
aI4703
aI4754
aI4885
aI4942
aI4962
aI5034
aI5055
aI5061
aI5077
aI5078
aI5238
aI5239
aa(lp530
I3649
aI3688
aI3715
aI3759
aI3760
aI3770
aI3821
aI3824
aI3827
aI3925
aI3956
aI3992
aI4002
aI4124
aI4129
aI4156
aI4174
aI4284
aI4404
aI4610
aI4621
aI4627
aI4785
aI4815
aI4842
aI4954
aI4980
aI4982
aI5165
aI5171
aI5208
aI5209
aa(lp531
I3676
aI3753
aI3831
aI3845
aa(lp532
I3684
aI3975
aI4024
aI4067
aI4159
aI4193
aI4237
aI4327
aI4373
aI4374
aI4412
aI4415
aa(lp533
I3689
aI3718
aI3787
aI3867
aI3877
aI3931
aI4006
aI4009
aI4018
aI4028
aI4125
aI4132
aI4152
aI4231
aI4271
aI4330
aI4334
aI4354
aI4355
aI4356
aa(lp534
I3694
aI3709
aI3747
aI3781
aI3782
aa(lp535
I3730
aI3788
aI3890
aI3940
aI4081
aI4180
aI4181
aa(lp536
I3748
aI3764
aI3800
aI3801
aa(lp537
I3763
aI3775
aI3807
aI3808
aa(lp538
I3766
aI3773
aI3786
aI3867
aI3931
aI4023
aI4027
aI4028
aa(lp539
I3767
aI3808
aI3811
aI3866
aI3886
aI3887
aa(lp540
I3776
aI3801
aI3826
aI3842
aI3843
aa(lp541
I3779
aI3880
aI3899
aI4011
aI4022
aI4023
aa(lp542
I3781
aI3791
aI3815
aI3829
aI3839
aI3841
aI3851
aI3860
aa(lp543
I3784
aI3814
aI3890
aI3958
aI3960
aI3961
aI4005
aI4081
aI4108
aI4147
aI4194
aI4216
aI4301
aI4310
aI4311
aa(lp544
I3794
aI3802
aI3803
aa(lp545
I3805
aI3845
aI4055
aI4134
aI4149
aI4237
aa(lp546
I3807
aI3811
aI3832
aI3836
aa(lp547
I3829
aI3856
aI3868
aa(lp548
I3833
aI3874
aI3994
aI3995
aa(lp549
I3834
aI3859
aI3896
aI3897
aI3900
aI3969
aI3993
aI4041
aI4527
aI4548
aI4569
aI4608
aI4614
aI4621
aI4631
aa(lp550
I3836
aI3866
aI3883
aI3909
aI3952
aI3982
aI4178
aI4205
aI4206
aa(lp551
I3843
aI3891
aI3892
aI3893
aa(lp552
I3854
aI3862
aI3932
aI3933
aa(lp553
I3861
aI3895
aI3913
aI3932
aI3967
aI3970
aI3981
aI4043
aI4169
aI4218
aI4248
aI4393
aI4394
aa(lp554
I3865
aI3923
aI3987
aI4000
aI4020
aI4088
aI4105
aa(lp555
I3871
aI3935
aI3950
aI3951
aa(lp556
I3873
aI3933
aI3967
aI3981
aI3994
aI4043
aI4045
aI4169
aI4186
aI4195
aI4199
aI4204
aa(lp557
I3878
aI3972
aI3996
aI3997
aI4031
aI4059
aI4072
aI4084
aI4164
aI4188
aI4191
aI4282
aI4297
aI4399
aI4549
aI4550
aa(lp558
I3879
aI3899
aI3953
aI4012
aI4016
aI4022
aI4027
aI4116
aI4132
aI4135
aI4152
aI4230
aI4231
aa(lp559
I3883
aI3886
aI3937
aI4077
aI4096
aI4097
aa(lp560
I3893
aI3920
aI3942
aI3949
aa(lp561
I3901
aI3986
aI4183
aI4243
aI4305
aI4493
aI4873
aI5029
aI5070
aI5098
aI5099
aa(lp562
I3914
aI3939
aI3995
aI4034
aI4045
aI4128
aI4179
aI4182
aI4199
aI4200
aa(lp563
I3926
aI4103
aI4104
aa(lp564
I3927
aI3970
aI4104
aI4137
aI4218
aI4342
aI4393
aI4429
aI4430
aa(lp565
I3938
aI3978
aI3993
aI3998
aI4031
aI4038
aa(lp566
I3945
aI3989
aI4034
aI4047
aI4065
aa(lp567
I3949
aI3977
aI4013
aI4014
aa(lp568
I3957
aI3966
aI3979
aI4032
aI4040
aI4044
aI4212
aI4252
aI4290
aI4363
aI4451
aI4466
aI4494
aI4517
aI4520
aI4593
aI4640
aI4673
aI4674
aa(lp569
I3965
aI4077
aI4083
aI4097
aI4166
aI4176
aI4177
aI4209
aI4249
aI4262
aI4264
aI4270
aI4287
aI4288
aa(lp570
I3982
aI4096
aI4176
aI4178
aI4397
aI4398
aa(lp571
I3988
aI4005
aI4020
aI4088
aI4108
aI4110
aI4114
aI4118
aI4122
aa(lp572
I3998
aI4041
aI4343
aI4482
aI4527
aI4541
aa(lp573
I3999
aI4000
aa(lp574
I4011
aI4012
aa(lp575
I4013
aI4026
aI4033
aI4035
aa(lp576
I4035
aI4098
aI4099
aa(lp577
I4038
aI4188
aI4191
aI4282
aI4343
aI4352
aa(lp578
I4065
aI4123
aI4128
aI4129
aI4155
aI4156
aa(lp579
I4067
aI4085
aI4159
aI4160
aa(lp580
I4086
aI4126
aI4451
aI4475
aI4520
aI4521
aa(lp581
I4110
aI4194
aI4257
aI4274
aI4295
aa(lp582
I4118
aI4122
aI4236
aI4257
aI4274
aI4346
aI4357
aI4361
aI4375
aI4408
aI4411
aI4434
aI4435
aa(lp583
I4135
aI4162
aI4230
aI4261
aI4271
aI4334
aI4444
aI4445
aa(lp584
I4143
aI4377
aI4382
aI4441
aI4442
aI4487
aI5022
aI5044
aI5047
aI5101
aI5223
aI5239
aI5276
aI5331
aI5336
aI5524
aI5567
aI5640
aI5731
aI5771
aI5772
aa(lp585
I4147
aI4180
aI4216
aI4223
aI4301
aI4336
aI4348
aI4349
aI4383
aI4512
aI4516
aI4578
aa(lp586
I4149
aI4279
aI4318
aI4415
aI4555
aI4758
aI4861
aI4946
aI4997
aI5002
aa(lp587
I4155
aI4174
aI4179
aI4182
aI4220
aI4278
aI4302
aI4303
aa(lp588
I4157
aI4459
aI4724
aI4750
aI4770
aI4799
aI4801
aa(lp589
I4160
aI4161
aI4193
aI4261
aI4327
aI4374
aI4557
aI4558
aI4590
aI4617
aI4644
aI4649
aa(lp590
I4177
aI4209
aI4362
aI4398
aI4420
aI4464
aI4481
aI4539
aI4565
aI4595
aa(lp591
I4186
aI4248
aI4293
aI4394
aI4430
aI4455
aI4456
aI4532
aI4566
aI4581
aI4582
aa(lp592
I4195
aI4200
aI4204
aI4220
aI4293
aI4455
aI4456
aI4478
aI4485
aI4532
aI4577
aI4582
aI4716
aI4805
aI4897
aI4948
aI4949
aa(lp593
I4202
aI4221
aI4225
aI4238
aI4246
aI4247
aI4250
aI4332
aI4344
aI4392
aI4545
aI4552
aI4560
aI4572
aI4587
aI4609
aI4629
aI4642
aI4643
aa(lp594
I4206
aI4340
aI4397
aI4420
aI4422
aa(lp595
I4227
aI4252
aI4299
aI4329
aa(lp596
I4249
aI4258
aI4265
aI4289
aI4322
aI4323
aa(lp597
I4258
aI4264
aI4265
aI4276
aa(lp598
I4262
aI4288
aI4306
aI4360
aI4386
aI4464
aI4465
aa(lp599
I4267
aI4320
aI4391
aI4438
aI4491
aI4545
aI4552
aI4560
aI4572
aI4626
aI4681
aI4735
aI4744
aI4745
aI4762
aI4860
aI4878
aI4884
aI4892
aI4916
aI4943
aa(lp600
I4270
aI4276
aI4289
aI4291
aI4312
aI4379
aI4386
aI4425
aI4465
aI4565
aI4579
aI4580
aa(lp601
I4278
aI4284
aI4303
aI4404
aI4473
aI4574
aI4584
aI4659
aI4691
aI4706
aI4785
aI4787
aI4788
aa(lp602
I4283
aI4563
aI4678
aI4709
aI4721
aI4759
aI4811
aI4864
aI4920
aI5116
aI5140
aI5307
aI5348
aI5508
aI5587
aI5686
aI5709
aI5733
aI6117
aI6119
aI6130
aI6137
aI6161
aI6164
aI6168
aI6172
aI6173
aI6189
aI6199
aI6205
aI6211
aI6249
aI6252
aI6276
aI6279
aI6286
aI6287
aI6294
aI6335
aI6365
aI6420
aI6442
aI6462
aI6502
aI6521
aI6568
aI6617
aI6646
aI6654
aI6658
aI6659
aI6937
aI7159
aI7290
aI7369
aI7459
aI7536
aI7621
aI7925
aI8032
aI8063
aI8122
aI8174
aI8186
aI8192
aI8194
aI8255
aI8258
aI8273
aI8318
aI8458
aI8651
aI8687
aI8702
aI8703
aI8704
aI8706
aI8718
aI8737
aI8753
aI8779
aI8816
aI8822
aI8830
aI8867
aI8903
aI9072
aI9092
aI9135
aI9143
aI9222
aI9363
aI9389
aI9399
aI9413
aI9435
aI9436
aI9441
aI9497
aI9515
aI9542
aI9551
aI9563
aI9613
aI9657
aI9658
aa(lp603
I4287
aI4306
aI4360
aI4362
aa(lp604
I4290
aI4299
aI4300
aa(lp605
I4291
aI4322
aI4426
aI4483
aI4580
aI4625
aI4626
aa(lp606
I4295
aI4310
aI4346
aI4357
aI4361
aI4375
aI4411
aI4434
aI4435
aI4535
aI4538
aI4559
aI4607
aI4619
aI4620
aI4624
aI4634
aI4657
aI4662
aI4694
aI4708
aI4712
aI4719
aI4720
aI4760
aI4813
aI4848
aI4888
aI4953
aI5021
aI5212
aI5220
aI5262
aI5297
aI5302
aI5344
aI5366
aa(lp607
I4297
aI4352
aI4402
aI4468
aI4482
aI4541
aI4548
aI4549
aI4550
aI4703
aI4752
aI4753
aI4754
aa(lp608
I4302
aI4457
aI4472
aI4473
aI4478
aI4479
aa(lp609
I4311
aI4336
aI4515
aI4535
aI4538
aI4540
aa(lp610
I4312
aI4367
aI4380
aI4425
aI4426
aa(lp611
I4330
aI4400
aI4401
aa(lp612
I4341
aI4429
aI4566
aI4581
aI4587
aI4642
aI4643
aI4645
aI4652
aI4716
aI4735
aI4746
aI4747
aI4860
aI4897
aI4909
aa(lp613
I4348
aI4515
aI4603
aI4613
aI4634
aa(lp614
I4349
aI4383
aI4512
aI4613
aI4624
aI4648
aI4656
aI4657
aI4658
aa(lp615
I4354
aI4445
aI4598
aI4612
aI4637
aI4638
aI4668
aI4699
aI4737
aI4738
aa(lp616
I4355
aI4505
aI4598
aI4639
aI4669
aI4738
aI4763
aI4810
aI4874
aI4882
aI4883
aa(lp617
I4356
aI4400
aI4447
aI4505
aI4523
aI4534
aI4542
aa(lp618
I4367
aI4379
aI4380
aa(lp619
I4373
aI4412
aI4557
aI4616
aI4644
aI4831
aI4836
aI4837
aI4861
aI4889
aa(lp620
I4441
aI4487
aI4488
aa(lp621
I4443
aI4678
aa(lp622
I4444
aI4590
aI4637
aI4710
aI4736
aI4823
aI4851
aI5008
aI5092
aI5093
aI5105
aa(lp623
I4453
aI4474
aI4475
aI4489
aa(lp624
I4457
aI4472
aI4508
aI4583
aI4584
aa(lp625
I4474
aI4489
aI4521
aI4593
aI4618
aI4654
aI4661
aI4686
aI4698
aI4852
aI4910
aI5231
aI5243
aI5244
aa(lp626
I4479
aI4485
aI4508
aI4577
aI4583
aI4594
aI4691
aI4806
aI4834
aI4949
aI4995
aI5046
aI5172
aI5277
aI5298
aI5327
aI5330
aI5354
aI5355
aa(lp627
I4517
aI4640
aI4739
aI5014
aI5048
aI5049
aa(lp628
I4523
aI4669
aI4670
aa(lp629
I4540
aI4603
aI4619
aI4620
aa(lp630
I4542
aI4670
aI4682
aI4763
aI4774
aI4874
aI4875
aa(lp631
I4558
aI4616
aI4617
aa(lp632
I4569
aI4608
aI4610
aI4614
aI4667
aI4752
aI4753
aI4778
aI4832
aI4842
aI4885
aI4942
aI4954
aI4982
aI5006
aI5013
aI5034
aI5041
aI5042
aI5055
aI5061
aI5078
aI5150
aI5171
aI5195
aI5209
aI5221
aI5238
aI5276
aI5295
aI5363
aI5402
aI5497
aI5499
aI5567
aI5640
aI5771
aI5883
aI5902
aI5988
aI6005
aI6009
aI6023
aI6040
aI6056
aI6065
aI6071
aI6103
aI6248
aI6264
aI6285
aI6291
aI6411
aI6459
aI6499
aI6517
aI6767
aI6824
aI6981
aI7084
aI7112
aI7219
aI7237
aI7263
aI7322
aI7415
aI7422
aI7447
aI7595
aI7617
aI7692
aI7695
aI7696
aI7733
aI7734
aa(lp633
I4570
aI4607
aI4633
aa(lp634
I4574
aI4659
aI4697
aI4748
aI4787
aI4841
aa(lp635
I4578
aI4604
aI4656
aI4663
aI4683
aI4694
aI4695
aI4705
aa(lp636
I4579
aI4595
aI4599
aI4625
aI4744
aI4783
aI4809
aI4850
aI5088
aI5151
aI5163
aI5184
aI5194
aI5240
aI5242
aI5257
aI5286
aI5287
aI5309
aI5323
aa(lp637
I4592
aI4623
aI4632
aI4633
aI4679
aI4702
aI4708
aI4743
aI4826
aI4877
aI4922
aI4952
aI5021
aI5031
aI5053
aI5067
aI5086
aI5095
aI5125
aI5133
aI5138
aI5177
aI5187
aI5261
aI5273
aI5308
aI5333
aI5350
aI5407
aI5412
aI5457
aI5487
aI5539
aI5540
aI5578
aI5597
aI5637
aI5650
aI5985
aI5990
aI6219
aI6393
aI6394
aa(lp638
I4594
aI4805
aI4806
aa(lp639
I4609
aI4641
aI4652
aI4746
aI4747
aa(lp640
I4612
aI4638
aI4639
aa(lp641
I4627
aI4631
aI4667
aI4778
aI4832
aa(lp642
I4629
aI4641
aI4645
aa(lp643
I4648
aI4719
aI4720
aa(lp644
I4649
aI4710
aI4831
aI4912
aI4975
aI5093
aI5186
aI5196
aI5202
aI5235
aI5384
aI5393
aa(lp645
I4650
aI4679
aI4742
aI4769
aI4781
aI4825
aI4877
aI4890
aI4934
aI4947
aI5066
aI5086
aI5125
aI5128
aI5138
aI5261
aI5333
aI5457
aI5487
aI5521
aI5539
aI5569
aI5589
aI5638
aI5657
aI5663
aI5989
aI5990
aa(lp646
I4654
aI4673
aI4674
aI5049
aI5127
aI5230
aI5231
aa(lp647
I4665
aI4675
aI4683
aI4684
aI4690
aI4705
aI4786
aI4809
aI4843
aI4850
aI4859
aI4993
aI5032
aI5033
aI5123
aI5160
aI5193
aI5204
aI5218
aI5228
aI5280
aI5282
aI5317
aI5405
aI5428
aI5461
aI5498
aI5512
aI5570
aI5627
aI5648
aI5721
aI5748
aI5749
aa(lp648
I4668
aI4699
aI4736
aI4737
aI4810
aI4824
aI4851
aI4882
aI4956
aI5003
aI5035
aI5036
aa(lp649
I4681
aI4745
aI4761
aI4783
aI4784
aa(lp650
I4695
aI4760
aI4786
aI4795
aa(lp651
I4697
aI4706
aI4777
aI4834
aI4835
aI4840
aa(lp652
I4702
aI4743
aI4825
aI4826
aa(lp653
I4712
aI4813
aI4888
aI4952
aI4953
aa(lp654
I4728
aI4756
aI4770
aI4793
aI4801
aI4804
aI4903
aI5069
aI5087
aa(lp655
I4748
aI4777
aI4798
aI4835
aI4840
aI5046
aI5111
aI5112
aa(lp656
I4755
aI4799
aI4804
aa(lp657
I4759
aI4800
aI4811
aI4845
aI4854
aI4858
aI4864
aI4904
aI4913
aI4920
aI4936
aI4973
aI5056
aI5068
aI5087
aI5116
aI5140
aa(lp658
I4761
aI4762
aI4878
aI4879
aI4880
aI4891
aa(lp659
I4784
aI4879
aI4880
aI4884
aI4891
aI4892
aI4909
aI4916
aI4943
aI4948
aI4995
aI5172
aI5184
aI5185
aI5188
aI5200
aI5242
aI5258
aI5309
aI5310
aI5326
aI5360
aI5362
aI5373
aI5382
aI5390
aI5413
aI5422
aa(lp660
I4788
aI4798
aI4815
aI4841
aI5038
aI5100
aI5112
aI5126
aI5165
aI5208
aI5213
aI5229
aI5295
aI5363
aI5388
aI5402
aI5423
aI5426
aI5430
aI5454
aa(lp661
I4795
aI4843
aI4848
aI4849
aa(lp662
I4823
aI4824
aa(lp663
I4828
aI4903
aI4904
aa(lp664
I4836
aI4889
aI4911
aI4975
aI4997
aI5062
aI5182
aI5186
aa(lp665
I4837
aI4911
aI4912
aa(lp666
I4849
aI4993
aI5156
aI5158
aI5167
aI5212
aI5224
aa(lp667
I4859
aI5033
aI5088
aI5151
aI5163
aI5204
aI5240
aI5257
aI5280
aI5303
aI5304
aa(lp668
I4867
aI4910
aI5369
aI5385
aI5386
aa(lp669
I4875
aI4883
aI4900
aI4906
aI4945
aI4956
aI4959
aI5003
aI5036
aI5120
aI5121
aI5143
aI5144
aa(lp670
I4890
aI4922
aI4934
aI4938
aa(lp671
I4896
aI4965
aI4966
aa(lp672
I4921
aI4936
aI4937
aa(lp673
I4929
aI4937
aI4958
aI5056
aI5085
aI5508
aI5555
aI5587
aI5593
aI5709
aI5712
aI5717
aI5733
aI5797
aI5812
aI5823
aI5881
aI5911
aI5925
aI5927
aI5939
aI5980
aI6041
aI6058
aI6105
aI6107
aI6117
aI6119
aI6120
aI6130
aI6135
aI6137
aI6175
aI6176
aa(lp674
I4930
aI4958
aI4965
aI4998
aI5011
aI5024
aI5076
aI5085
aI5174
aI5179
aI5455
aI5456
aI5555
aI5556
aI5557
aI5568
aI5593
aI5638
aI5657
aI5813
aI5823
aI5874
aI5876
aI5923
aI5929
aI5980
aI6026
aI6037
aI6041
aI6047
aI6063
aI6064
aI6127
aI6140
aI6143
aI6176
aI6245
aI6265
aI6274
aI6288
aI6295
aI6305
aI6365
aI6371
aI6426
aI6442
aI6462
aI6498
aI6523
aI6568
aI6594
aI6617
aI6659
aI6674
aI6694
aI6737
aI6766
aI6829
aI6896
aI6920
aI6922
aI6952
aI6953
aI6992
aI7005
aa(lp675
I4938
aI5031
aI5066
aI5067
aa(lp676
I4951
aI4967
aI4991
aI4992
aa(lp677
I4962
aI5006
aI5013
aI5041
aI5042
aa(lp678
I4963
aI4970
aI4972
aI4992
aI5010
aa(lp679
I4971
aI4972
aI4978
aI4991
aI5010
aI5025
aI5082
aI5102
aI5223
aI5225
aI5318
aI5331
aI5377
aI5443
aI5525
aI5664
aI5731
aI5768
aI5792
aI5821
aI5835
aI5903
aI5912
aI5940
aI5998
aI6020
aI6056
aI6087
aI6103
aI6162
aI6169
aI6248
aI6264
aI6267
aI6333
aI6398
aI6411
aI6463
aI6486
aI6513
aI6531
aI6546
aI6560
aI6591
aI6604
aI6650
aI6663
aI6746
aI6768
aI6824
aI6883
aI6903
aI6934
aI6966
aI6981
aI7032
aI7086
aI7117
aI7119
aI7172
aI7238
aI7263
aI7285
aI7310
aI7590
aI7754
aI7755
aa(lp680
I4973
aI4974
aa(lp681
I4980
aI5038
aI5100
aa(lp682
I4996
aI5098
aI5147
aI5148
aa(lp683
I5002
aI5040
aI5062
aI5132
aI5319
aI5325
aI5541
aI5572
aI5585
aI5681
aI5682
aI5691
aI5745
aI5867
aI5868
aa(lp684
I5008
aI5035
aI5092
aI5120
aI5134
aI5190
aI5191
aa(lp685
I5009
aI5018
aI5106
aI5146
aI5198
aI5496
aI5573
aI5603
aI5644
aI5831
aI6018
aI6479
aI6484
aI6506
aI6547
aI6580
aI6641
aI6667
aI6803
aI6826
aI6872
aI6874
aI7001
aI7098
aI7245
aI7269
aI7270
aI7312
aI7570
aI7619
aI7637
aI7641
aI7642
aI7679
aI7729
aI7730
aa(lp686
I5017
aI5121
aI5145
aI5146
aa(lp687
I5023
aI5101
aI5102
aa(lp688
I5032
aI5122
aI5158
aI5160
aI5193
aI5218
aI5222
aI5228
aI5312
aI5404
aI5427
aI5428
aa(lp689
I5048
aI5127
aI5149
aa(lp690
I5053
aI5095
aI5133
aI5177
aI5187
aI5262
aI5273
aI5308
aI5350
aI5401
aI5407
aI5412
aI5540
aI5581
aI5582
aa(lp691
I5058
aI5130
aI5206
aI5476
aI5548
aI5619
aI5753
aI5829
aI5865
aI5893
aI5916
aI5982
aI6013
aa(lp692
I5077
aI5150
aI5195
aI5221
aa(lp693
I5080
aI5084
aI5174
aI5210
aI5269
aI5342
aI5446
aI5536
aI5556
aI5557
aa(lp694
I5090
aI5104
aI5130
aI5131
aa(lp695
I5105
aI5134
aI5190
aI5196
aI5434
aI5534
aI5586
aa(lp696
I5111
aI5126
aI5213
aI5229
aI5298
aI5355
aI5388
aI5423
aI5426
aI5430
aI5454
aI5466
aI5491
aI5497
aI5499
aI5626
aI5656
aI5660
aI5810
aI5883
aI5899
aI5959
aI5995
aI6009
aI6039
aI6077
aI6131
aI6145
aI6148
aI6149
aI6150
aI6223
aI6353
aI6372
aI6744
aI6745
aa(lp697
I5122
aI5123
aa(lp698
I5131
aI5141
aI5319
aI5541
aI5548
aI5585
aI5681
aI5691
aI5745
aI5829
aI5893
aI5894
aa(lp699
I5143
aI5191
aI5192
aI5264
aI5379
aI5394
aI5434
aI5464
aI5534
aI5614
aI5615
aa(lp700
I5144
aI5145
aI5192
aI5198
aI5260
aI5265
aI5379
aI5394
aI5448
aI5449
aI5450
aa(lp701
I5156
aI5167
aI5220
aI5222
aI5224
aI5297
aI5302
aI5312
aI5344
aI5366
aI5401
aI5427
aI5498
aI5575
aI5582
aI5647
aI5652
aI5674
aI5678
aI5699
aI5721
aI5765
aI5786
aI5807
aI5826
aI5840
aI5842
aI5885
aI5889
aI5907
aI5966
aI5967
aI6074
aI6090
aI6091
aI6097
aI6192
aI6260
aI6289
aI6421
aI6431
aI6432
aI6451
aI6464
aI6526
aI6555
aI6600
aI6665
aI6666
aI6717
aI6725
aI6770
aI6780
aI6786
aI6859
aI6897
aI6907
aI6939
aI6982
aI6983
aI6984
aI7003
aI7043
aa(lp702
I5179
aI5446
aI5455
aI5456
aa(lp703
I5182
aI5235
aI5325
aI5384
aI5486
aI5501
aI5572
aI5605
aI5682
aI5683
aa(lp704
I5185
aI5188
aI5194
aI5200
aa(lp705
I5202
aI5393
aI5486
aI5501
aI5586
aI5605
aI5683
aI5755
aI5793
aI5800
aI5817
aI5868
aI5908
aI5945
aI5960
aI6014
aI6035
aI6036
aI6062
aI6134
aI6201
aI6239
aI6258
aI6271
aI6301
aI6302
aI6306
aI6332
aI6340
aI6343
aI6344
aI6362
aI6424
aI6450
aI6468
aI6493
aI6508
aI6525
aI6566
aI6612
aI6783
aI6806
aI6847
aI6853
aI6893
aI6994
aI6995
aa(lp706
I5244
aI5266
aI5284
aI5368
aI5369
aa(lp707
I5258
aI5277
aI5327
aI5329
aI5362
aI5390
aI5391
aa(lp708
I5260
aI5450
aI5495
aI5496
aa(lp709
I5264
aI5265
aa(lp710
I5282
aI5303
aI5317
aI5461
aI5462
aa(lp711
I5284
aI5337
aI5528
aI5633
aI5634
aa(lp712
I5286
aI5304
aI5359
aI5462
aI5482
aI5550
aI5606
aI5616
aI5648
aI5658
aI5659
aa(lp713
I5287
aI5323
aI5359
aI5373
aI5387
aI5396
aI5397
aa(lp714
I5310
aI5326
aI5517
aI5544
aI5620
aI5621
aa(lp715
I5329
aI5330
aI5354
aI5466
aI5522
aI5523
aa(lp716
I5336
aI5377
aI5443
aI5524
aI5525
aa(lp717
I5343
aI5438
aI5506
aI5520
aI5536
aI5568
aI5569
aa(lp718
I5360
aI5420
aI5517
aI5538
aI5621
aI5760
aI5761
aI5841
aI5887
aI5909
aa(lp719
I5368
aI5385
aI5503
aI5528
aI5574
aI5666
aI5795
aI5796
aa(lp720
I5382
aI5387
aI5397
aI5483
aI5544
aI5550
aI5606
aI5616
aI5620
aI5820
aI5841
aI5861
aI5887
aI5918
aI6068
aI6075
aI6180
aI6296
aI6303
aI6313
aI6375
aI6386
aI6396
aI6418
aa(lp721
I5386
aI5502
aI5503
aI5510
aI5511
aI10049
aa(lp722
I5391
aI5422
aI5514
aI5522
aI5558
aI5561
aI5584
aI5602
aI5604
aI5617
aI5651
aI5679
aI5698
aI5701
aI5706
aI5707
aI5746
aI5750
aI5751
aa(lp723
I5396
aI5482
aI5483
aa(lp724
I5404
aI5405
aa(lp725
I5413
aI5420
aI5514
aI5538
aI5558
aI5561
aI5604
aI5679
aI5746
aI5750
aI5761
aI5775
aI5851
aI5878
aI5890
aI5891
aI5926
aI5953
aI5962
aI6003
aI6016
aI6059
aI6246
aI6247
aa(lp726
I5418
aI5441
aI5471
aI5552
aI5554
aI5673
aI5778
aI5862
aI5884
aI5906
aI5942
aI5999
aI6020
aI6083
aI6088
aI6166
aI6217
aa(lp727
I5448
aI5449
aI5464
aI5495
aI5603
aI5615
aI5700
aI5784
aI5794
aI5800
aI5801
aa(lp728
I5460
aI5633
aI5895
aI5896
aa(lp729
I5491
aI5523
aI5626
aI5651
aI5656
aI5669
aa(lp730
I5510
aI5641
aI5666
aI5735
aI5736
aa(lp731
I5511
aI5641
aI5642
aa(lp732
I5512
aI5570
aI5575
aI5580
aa(lp733
I5574
aI5634
aI5896
aI6080
aI6082
aI6237
aI6391
aI6392
aa(lp734
I5578
aI5581
aI5637
aI5650
aI5652
aI5985
aI5993
aa(lp735
I5580
aI5627
aI5647
aI5674
aI5676
aa(lp736
I5584
aI5602
aI5617
aI5698
aI5706
aI5751
aI5775
aI5851
aI5872
aI5875
aI5878
aI5926
aI5953
aI6007
aI6016
aI6017
aa(lp737
I5589
aI5597
aa(lp738
I5614
aI5700
aI5742
aI5755
aI5756
aa(lp739
I5642
aI5736
aI5938
aI6061
aI6157
aI6272
aI6584
aI6645
aI6911
aI7194
aI7242
aI7257
aI7314
aI7341
aI7362
aI7412
aI7493
aI10048
aI10049
aa(lp740
I5644
aI5784
aI5822
aI5830
aI5831
aa(lp741
I5658
aI5749
aI5767
aI5819
aI5861
aI5888
aI5907
aI5918
aI5957
aI5975
aI5986
aI5991
aI5992
aa(lp742
I5659
aI5819
aI5820
aa(lp743
I5660
aI5669
aI5701
aI5810
aI5814
aI5866
aI5875
aI5899
aI5959
aI6007
aI6017
aI6059
aI6148
aI6155
aI6177
aI6349
aI6357
aI6358
aa(lp744
I5663
aI5874
aI5876
aI5923
aI5929
aI5989
aI6063
aI6094
aI6218
aI6219
aa(lp745
I5676
aI5678
aI5699
aI5765
aI5967
aa(lp746
I5686
aI5712
aI5717
aa(lp747
I5707
aI5814
aI5866
aI5872
aa(lp748
I5735
aI5796
aI5938
aI6015
aI6060
aI6061
aa(lp749
I5742
aI5756
aI5793
aI5794
aa(lp750
I5748
aI5767
aI5832
aI5842
aa(lp751
I5760
aI5890
aI5909
aI5968
aI6044
aI6068
aI6075
aI6153
aI6242
aI6277
aI6283
aI6386
aI6395
aI6437
aI6457
aI6501
aI6543
aI6544
aI6562
aI6563
aI6581
aI6588
aa(lp752
I5772
aI5792
aI5902
aI5903
aa(lp753
I5786
aI5882
aI5966
aI5993
aI6121
aI6262
aI6269
aI6289
aI6394
aI6421
aI6717
aI6756
aI6830
aI6923
aI6955
aI6965
aa(lp754
I5795
aI6015
aI6082
aI6392
aI6455
aI6489
aI6552
aI6620
aI6668
aI6669
aI6833
aI6834
aa(lp755
I5797
aI5812
aI5813
aa(lp756
I5801
aI5817
aI5822
aI6014
aI6239
aI6362
aI6389
aI6424
aI6450
aI6469
aa(lp757
I5807
aI5826
aI5840
aI5882
aI5885
aa(lp758
I5830
aI6018
aI6389
aI6479
aI6483
aI6484
aa(lp759
I5832
aI5888
aI5889
aa(lp760
I5864
aI5884
aI5982
aI6170
aI6217
aI6267
aI6268
aI6334
aI6378
aI6407
aI6408
aI6473
aI6513
aI6546
aI6575
aI6593
aI6597
aI6651
aI6720
aI6734
aI6746
aI6777
aI6860
aI6883
aI6903
aI6935
aI6991
aI7018
aI7034
aI7086
aI7117
aI7161
aI7175
aI7285
aI7306
aI7307
aI7368
aI7555
aI7590
aI7614
aI7755
aI7946
aI8061
aI8338
aI8339
aa(lp761
I5867
aI5894
aI5908
aI5916
aI5935
aI5943
aI5945
aI5960
aI5969
aI6000
aI6066
aI6134
aI6156
aI6215
aI6244
aI6258
aI6293
aI6401
aI6490
aI6606
aI6623
aI6735
aI6777
aI6860
aI6936
aI6964
aI6991
aI7026
aI7029
aI7034
aI7161
aI7248
aI7298
aa(lp762
I5881
aI5911
aI5920
aI5944
aI5946
aI5974
aI6011
aI6027
aI6049
aI6057
aI6105
aI6135
aI6168
aa(lp763
I5891
aI5962
aI5968
aI5994
aI6003
aI6032
aI6033
aa(lp764
I5920
aI5939
aI5946
aa(lp765
I5925
aI5927
aI5944
aI5974
aI6011
aI6027
aI6049
aI6057
aI6058
aa(lp766
I5935
aI5943
aI6013
aI6188
aI6230
aI6268
aI6401
aI6408
aI6490
aI6720
aI6734
aI6735
aa(lp767
I5941
aI5942
aa(lp768
I5957
aI6048
aI6090
aI6091
aI6100
aa(lp769
I5969
aI6000
aI6066
aI6156
aI6188
aI6215
aI6230
aI6244
aa(lp770
I5975
aI5986
aI5991
aI5992
aI6048
aI6180
aI6296
aI6303
aI6308
aI6379
aI6436
aI6451
aI6464
aI6465
aa(lp771
I5988
aI6005
aI6023
aI6040
aI6065
aI6071
aI6285
aI6448
aI6488
aa(lp772
I5994
aI6038
aI6044
aa(lp773
I5995
aI6039
aI6131
aI6145
aI6149
aI6150
aI6155
aI6223
aI6330
aI6358
aI6367
aI6385
aI6388
aI6494
aI6548
aI6549
aa(lp774
I6026
aI6037
aI6047
aI6064
aI6094
aI6127
aI6140
aI6143
aI6233
aI6234
aI6253
aI6255
aI6288
aI6305
aI6355
aI6356
aa(lp775
I6032
aI6033
aI6038
aI6153
aI6242
aI6246
aI6277
aI6283
aI6326
aI6429
aI6437
aa(lp776
I6035
aI6036
aI6062
aI6201
aI6271
aI6302
aI6306
aI6332
aI6415
aI6493
aI6559
aI6782
aI6783
aa(lp777
I6060
aI6157
aI6272
aI6455
aI6489
aI6545
aI6584
aI6622
aI6644
aI6645
aa(lp778
I6074
aI6121
aI6128
aI6144
aa(lp779
I6077
aI6291
aI6372
aI6390
aI6430
aI6488
aI6524
aI6727
aI6832
aI6870
aa(lp780
I6083
aI6087
aI6092
aa(lp781
I6088
aI6092
aI6162
aI6166
aI6169
aI6170
aa(lp782
I6097
aI6128
aI6136
aI6191
aI6192
aa(lp783
I6100
aI6379
aI6431
aI6432
aa(lp784
I6107
aI6120
aI6161
aI6175
aI6190
aI6211
aI6245
aI6250
aI6252
aI6257
aI6274
aI6282
aI6294
aI6295
aa(lp785
I6136
aI6144
aI6261
aI6269
aa(lp786
I6172
aI6173
aI6199
aI6205
aI6279
aI6335
aI6420
aI6646
aI6654
aI6664
aI6693
aI6896
aI6902
aI7212
aI7290
aI7342
aI7366
aI7459
aI7463
aI7475
aI7476
aa(lp787
I6177
aI6247
aI6326
aI6349
aI6357
aI6429
aI6501
aI6548
aI6581
aI6626
aI6637
aI6653
aI6721
aI6722
aa(lp788
I6189
aI6190
aa(lp789
I6191
aI6260
aI6261
aI6262
aa(lp790
I6218
aI6236
aI6255
aI6369
aI6393
aI6456
aI6477
aI6533
aI6540
aI6558
aI6561
aI6576
aI6599
aI6629
aI6648
aI6706
aI6830
aI6831
aI6868
aI6869
aa(lp791
I6235
aI6253
aI6355
aI6356
aI6369
aI6371
aI6426
aI6456
aI6477
aI6498
aI6533
aI6540
aI6558
aI6561
aI6565
aI6576
aI6599
aI6629
aI6648
aI6656
aI6662
aI6671
aI6688
aI6713
aI6754
aI6755
aa(lp792
I6249
aI6250
aa(lp793
I6257
aI6265
aa(lp794
I6282
aI6286
aI6287
aa(lp795
I6293
aI6340
aI6343
aI6412
aI6587
aI6606
aI6623
aI6679
aI6698
aI6705
aI6793
aI6800
aI6856
aI6936
aI6948
aa(lp796
I6301
aI6344
aI6412
aI6415
aI6559
aI6708
aI6782
aI6815
aI6906
aI6933
aI6985
aI6994
aI7045
aI7131
aI7167
aI7231
aI7299
aI7328
aI7387
aI7434
aI7440
aI7450
aI7460
aI7492
aI7530
aI7549
aI7550
aa(lp797
I6308
aI6313
aI6375
aI6434
aI6436
aI6470
aI6472
aa(lp798
I6330
aI6353
aI6367
aI6385
aI6388
aI6494
aI6549
aI6626
aI6744
aI6771
aI6838
aI6889
aI6915
aI6946
aI6951
aI7016
aI7126
aI7181
aI7201
aI7217
aI7256
aI7370
aI7389
aI7464
aI7527
aI7528
aa(lp799
I6333
aI6334
aI6336
aa(lp800
I6336
aI6378
aI6398
aI6399
aa(lp801
I6390
aI6582
aI6643
aI6745
aI6760
aI6889
aI6890
aI7027
aI7031
aI7047
aI7048
aa(lp802
I6391
aI6668
aI6791
aI6792
aa(lp803
I6395
aI6396
aI6428
aa(lp804
I6399
aI6407
aI6463
aI6473
aa(lp805
I6418
aI6428
aI6434
aI6457
aI6470
aI6541
aI6562
aI6631
aI6675
aI6821
aI6846
aI6942
aI6956
aI6957
aa(lp806
I6430
aI6582
aI6643
aI6760
aI6842
aI6870
aI6890
aI6891
aI6989
aI7193
aI7244
aI7280
aI7379
aI7491
aI7629
aI7638
aI7659
aI7660
aa(lp807
I6448
aI6524
aI6554
aI6728
aI6912
aI6962
aI6976
aI7022
aI7084
aI7105
aI7112
aI7219
aI7225
aI7229
aa(lp808
I6459
aI6485
aI6486
aa(lp809
I6465
aI6472
aI6541
aI6600
aI6631
aI6666
aI6715
aI6822
aI6836
aI6839
aI6840
aI6841
aa(lp810
I6468
aI6469
aI6483
aI6508
aI6580
aI6627
aI6640
aI6641
aI6670
aI6681
aI6784
aI6787
aI6794
aI6803
aI6818
aI6858
aI6871
aI6872
aa(lp811
I6485
aI6499
aI6517
aI6530
aI6531
aa(lp812
I6523
aI6565
aI6594
aI6656
aI6671
aI6713
aI6737
aI6766
aI6829
aI6992
aI6999
aI7017
aI7135
aI7140
aI7141
aI7143
aa(lp813
I6525
aI6627
aI6639
aI6640
aa(lp814
I6526
aI6527
aI6555
aa(lp815
I6527
aI6665
aI6715
aI6725
aI6822
aI6850
aI6873
aI6875
aI6918
aI6940
aI6941
aa(lp816
I6530
aI6604
aI6663
aI6767
aI6768
aa(lp817
I6543
aI6544
aI6563
aI6588
aI6675
aI6721
aI6740
aI6812
aI6823
aI6864
aI6926
aI6949
aI6950
aa(lp818
I6545
aI6552
aI6553
aa(lp819
I6553
aI6620
aI6621
aI6622
aa(lp820
I6554
aI6727
aI6728
aI6832
aI6842
aI6843
aI6854
aI6912
aa(lp821
I6560
aI6574
aI6575
aa(lp822
I6566
aI6639
aI6670
aI6680
aI6681
aa(lp823
I6574
aI6591
aI6593
aI6596
aI6597
aa(lp824
I6587
aI6679
aI6692
aI6702
aI6708
aI6796
aI6814
aI6815
aa(lp825
I6596
aI6650
aI6651
aa(lp826
I6612
aI6680
aI6784
aI6806
aI6807
aa(lp827
I6621
aI6644
aI6834
aI6910
aI6911
aa(lp828
I6637
aI6653
aI6722
aI6771
aI6812
aI6823
aI6838
aI6915
aI6926
aI6951
aI6958
aI6959
aI7011
aI7126
aI7136
aI7179
aI7180
aa(lp829
I6658
aI6664
aI6673
aI6674
aa(lp830
I6662
aI6688
aI6706
aI6755
aI6868
aI6993
aI7089
aI7125
aI7142
aI7152
aI7153
aa(lp831
I6669
aI6792
aI6827
aI6833
aI6910
aI7194
aI7242
aI7268
aI7473
aI7552
aI7570
aI7980
aI7981
aa(lp832
I6673
aI6693
aI6694
aa(lp833
I6692
aI6698
aI6700
aa(lp834
I6700
aI6702
aI6705
aI6710
aa(lp835
I6710
aI6793
aI6796
aI6810
aa(lp836
I6740
aI6821
aI6864
aI6888
aa(lp837
I6754
aI6993
aI6999
aI7030
aa(lp838
I6756
aI6923
aI6960
aI6961
aI6982
aI7066
aI7067
aa(lp839
I6770
aI6844
aI6850
aI6875
aI6898
aI6899
aa(lp840
I6780
aI6786
aI6844
aI6859
aI6897
aI6898
aI6904
aI6907
aI6971
aI7051
aI7128
aI7130
aI7134
aI7145
aI7148
aI7150
aI7207
aI7209
aI7210
aa(lp841
I6787
aI6794
aI6807
aI6818
aI6847
aI6858
aI6862
aI6876
aI6879
aI6880
aa(lp842
I6800
aI6810
aI6814
aI6856
aI6906
aI6948
aI6967
aI7026
aI7035
aI7040
aI7093
aI7131
aI7176
aI7177
aa(lp843
I6831
aI6869
aI6955
aI7010
aI7056
aI7089
aI7100
aa(lp844
I6836
aI6846
aI6848
aa(lp845
I6839
aI6840
aI6873
aI6914
aI6988
aI7163
aI7189
aI7250
aI7282
aI7283
aa(lp846
I6841
aI6848
aI6914
aI6956
aI7006
aI7139
aI7163
aI7164
aa(lp847
I6843
aI6854
aI6962
aI6989
aI7060
aI7076
aI7243
aI7260
aI7280
aI7281
aa(lp848
I6853
aI6862
aI6867
aa(lp849
I6867
aI6876
aI6893
aI6995
aI6997
aI7045
aI7046
aa(lp850
I6871
aI6874
aI6879
aI6880
aI6969
aI6997
aI7114
aI7158
aI7169
aI7173
aI7183
aI7184
aa(lp851
I6888
aI6942
aI6949
aI6950
aI6958
aI7020
aI7023
aI7024
aI7053
aI7054
aI7261
aI7264
aa(lp852
I6891
aI7027
aI7031
aI7091
aI7193
aI7197
aa(lp853
I6899
aI6904
aI6940
aI6971
aI7039
aI7051
aI7075
aI7204
aI7265
aI7337
aI7338
aa(lp854
I6902
aI6922
aI6952
aI6986
aI7129
aI7147
aI7212
aI7342
aI7343
aa(lp855
I6918
aI6941
aI6988
aI7039
aI7041
aI7249
aI7250
aa(lp856
I6920
aI6953
aI6986
aI7005
aI7017
aI7140
aI7147
aI7162
aI7288
aI7334
aI7343
aI7395
aI7457
aI7463
aI7512
aI7717
aI7877
aI7972
aI7982
aI8017
aI8037
aI8054
aI8080
aI8081
aI8098
aI8138
aI8206
aI8208
aI8209
aa(lp857
I6933
aI6967
aI6985
aa(lp858
I6934
aI6935
aI6947
aa(lp859
I6939
aI7028
aI7043
aI7130
aI7132
aa(lp860
I6946
aI7016
aI7047
aI7049
aI7059
aI7137
aI7181
aI7182
aa(lp861
I6947
aI6966
aI7018
aI7032
aa(lp862
I6957
aI7006
aI7020
aI7149
aI7247
aI7264
aI7295
aI7324
aI7408
aI7472
aI7480
aa(lp863
I6959
aI7011
aI7024
aI7122
aI7179
aI7199
aI7202
aI7220
aI7221
aa(lp864
I6960
aI6965
aI7010
aI7063
aI7081
aI7116
aI7211
aI7236
aa(lp865
I6961
aI7066
aI7081
aI7211
aI7234
aI7241
aI7271
aI7358
aI7360
aa(lp866
I6964
aI7029
aI7035
aI7040
aI7092
aI7176
aI7230
aI7248
aI7298
aI7307
aI7434
aI7482
aI7500
aI7577
aI7998
aI8120
aI8162
aI8163
aI8233
aI8265
aI8287
aI8326
aa(lp867
I6969
aI7000
aI7001
aa(lp868
I6976
aI7022
aI7060
aI7076
aI7105
aI7225
aI7229
aI7243
aI7251
aI7318
aI7415
aI7421
aI7478
aI7524
aI7545
aI7593
aI7594
aI7595
aa(lp869
I6983
aI6984
aI7055
aI7067
aI7166
aI7178
aI7241
aa(lp870
I7000
aI7098
aI7114
aI7269
aI7333
aI7347
aI7406
aI7410
aI7452
aI7484
aI7515
aI7516
aa(lp871
I7003
aI7028
aI7055
aI7132
aI7166
aI7191
aI7207
aI7210
aI7214
aI7315
aI7340
aI7372
aI7513
aI7557
aI7558
aI7580
aa(lp872
I7023
aI7053
aI7054
aI7122
aI7155
aI7261
aI7292
aI7295
aI7296
aa(lp873
I7030
aI7125
aI7135
aI7143
aI7348
aI7432
aI7461
aI7462
aa(lp874
I7041
aI7204
aI7249
aI7282
aI7291
aI7338
aI7388
aI7397
aI7455
aI7477
aI7488
aI7489
aI7509
aI7510
aa(lp875
I7046
aI7158
aI7165
aI7167
aI7168
aa(lp876
I7048
aI7049
aI7091
aI7308
aI7309
aa(lp877
I7056
aI7063
aI7100
aI7153
aI7227
aI7276
aI7349
aI7356
aI7377
aI7382
aI7601
aI7616
aI7625
aI7668
aI7680
aI7711
aI7722
aI7776
aI7777
aI7791
aI7900
aI7965
aI7969
aI7988
aI8057
aI8123
aI8230
aI8325
aI8346
aI8347
aa(lp878
I7059
aI7137
aI7182
aI7256
aI7308
aI7370
aI7373
aI7389
aI7464
aI7483
aI7528
aI7529
aI7803
aI7862
aI7976
aI8283
aI8284
aa(lp879
I7075
aI7128
aI7134
aI7145
aI7148
aI7150
aI7209
aI7214
aI7265
aI7337
aI7397
aI7455
aI7509
aI7526
aI7558
aI7580
aI7597
aI7599
aI7610
aI7611
aI7673
aI7674
aa(lp880
I7092
aI7093
aa(lp881
I7116
aI7234
aI7236
aI7271
aI7276
aI7349
aI7358
aI7431
aI7471
aI7523
aI7643
aI7811
aI7813
aI7823
aa(lp882
I7119
aI7237
aI7238
aa(lp883
I7129
aI7162
aa(lp884
I7136
aI7200
aI7201
aI7221
aI7239
aI7240
aa(lp885
I7139
aI7149
aI7164
aI7189
aI7247
aI7283
aI7291
aI7324
aI7388
aI7408
aI7428
aI7480
aI7573
aI7612
aI7691
aI7709
aI7710
aa(lp886
I7141
aI7288
aI7334
aI7461
aI7466
aI7661
aI7718
aI7837
aI7877
aI7878
aa(lp887
I7142
aI7274
aI7348
aI7376
aI7556
aI7575
aI7600
aI7601
aa(lp888
I7152
aI7227
aI7274
aI7356
aI7376
aI7377
aa(lp889
I7155
aI7202
aI7357
aI7359
aa(lp890
I7165
aI7169
aI7183
aI7205
aI7331
aI7551
aI7719
aI7753
aI7784
aI7851
aI7853
aI7854
aa(lp891
I7168
aI7299
aI7328
aI7387
aI7460
aI7492
aI7520
aI7783
aI7784
aa(lp892
I7172
aI7175
aa(lp893
I7173
aI7206
aI7331
aI7333
aI7405
aI7406
aa(lp894
I7177
aI7230
aI7231
aa(lp895
I7178
aI7191
aI7301
aI7311
aI7313
aI7315
aI7336
aI7340
aI7344
aI7360
aI7383
aI7416
aI7431
aI7467
aI7505
aI7523
aI7542
aI7643
aI7690
aI7813
aI7815
aI7816
aa(lp896
I7180
aI7199
aI7200
aa(lp897
I7184
aI7205
aI7206
aa(lp898
I7197
aI7244
aI7309
aI7373
aI7483
aI7487
aI7518
aI7629
aI7659
aI7846
aI7986
aI8010
aI8030
aI8031
aI8279
aI8299
aI8419
aI8478
aI8481
aI8558
aI8578
aI8665
aI8710
aI8711
aa(lp899
I7217
aI7240
aI7266
aI7420
aI7501
aI7527
aI7529
aI7534
aI7535
aa(lp900
I7220
aI7239
aI7266
aI7359
aI7419
aI7497
aI7501
aI7538
aI7627
aI7628
aa(lp901
I7245
aI7270
aI7347
aI7385
aI7410
aI7448
aI7715
aI7716
aI7731
aI7806
aI7808
aI7809
aa(lp902
I7251
aI7260
aI7281
aI7318
aI7379
aI7421
aI7478
aI7491
aI7638
aI7646
aI7726
aI7820
aI7824
aI7923
aI8002
aI8027
aI8095
aI8227
aI8235
aI8242
aI8303
aI8305
aa(lp903
I7257
aI7268
aI7314
aI7341
aI7362
aI7412
aI7473
aI7493
aI7552
aI7981
aI8483
aI10047
aa(lp904
I7292
aI7357
aI7497
aI7538
aI7541
aa(lp905
I7296
aI7472
aI7541
aI7627
aI7686
aI7691
aI7728
aI7770
aI7781
aI7873
aI7918
aI7919
aa(lp906
I7301
aI7311
aI7313
aI7351
aI7378
aI7383
aa(lp907
I7306
aI7368
aI7555
aI8000
aI8120
aI8161
aI8211
aI8212
aa(lp908
I7310
aI7322
aI7422
aI7502
aI7634
aI7754
aI7814
aI7940
aI8182
aI8301
aI8315
aI8338
aI8369
aI8382
aI8544
aI8574
aI8918
aI9028
aI10036
aa(lp909
I7312
aI7385
aI7468
aI7607
aI7729
aI7872
aI7891
aI7952
aI8049
aI8050
aa(lp910
I7336
aI7372
aI7378
aI7416
aI7418
aI7467
aI7503
aI7505
aI7506
aa(lp911
I7344
aI7351
aa(lp912
I7366
aI7369
aa(lp913
I7382
aI7471
aI7616
aI7625
aI7680
aI7778
aI7795
aI7799
aI7811
aI7827
aI7828
aI7833
aa(lp914
I7395
aI7457
aI7465
aI7466
aa(lp915
I7405
aI7452
aI7551
aI7587
aI7702
aI7719
aI7748
aI7753
aI7849
aI7854
aI7860
aI7941
aI8005
aI8011
aI8035
aI8036
aa(lp916
I7418
aI7503
aI7513
aI7547
aI7557
aI7566
aI7597
aI7670
aI7693
aI7694
aa(lp917
I7419
aI7420
aa(lp918
I7428
aI7489
aI7533
aI7573
aI7605
aI7764
aa(lp919
I7432
aI7556
aI7563
aI7585
aI7589
aI7596
aI7623
aa(lp920
I7440
aI7450
aI7482
aI7500
aI7549
aI7577
aI7579
aI7583
aI7632
aI7633
aI7635
aI7639
aI7640
aI7648
aI7649
aI7654
aI7658
aI7683
aI7684
aI7697
aI7756
aI7998
aI7999
aa(lp921
I7447
aI7502
aI7618
aI7634
aI7734
aI7796
aI7797
aa(lp922
I7448
aI7484
aI7485
aa(lp923
I7462
aI7623
aI7661
aI7704
aI7759
aI7772
aI7774
aI7812
aI7837
aI7838
aI7839
aI7866
aI7867
aa(lp924
I7465
aI7512
aI7717
aI7718
aa(lp925
I7468
aI7607
aI7716
aI7782
aI7882
aI7890
aI7915
aI8049
aI8062
aI8085
aI8093
aI8094
aa(lp926
I7475
aI7536
aI7567
aa(lp927
I7476
aI7567
aI7621
aI7972
aI8032
aI8063
aI8064
aa(lp928
I7477
aI7510
aI7526
aI7532
aI7605
aI7708
aI7714
aI7737
aI7804
aI7898
aI7899
aI7927
aI7928
aa(lp929
I7485
aI7516
aI7588
aI7702
aI7731
aI7743
aI7748
aI7749
aa(lp930
I7487
aI7559
aI7657
aI7664
aI7858
aI7862
aI7904
aI8030
aI8089
aI8140
aI8298
aI8410
aI8411
aI8418
aI8419
aa(lp931
I7488
aI7532
aI7533
aa(lp932
I7506
aI7542
aI7547
aI7566
aI7670
aI7690
aI7816
aI7902
aI8008
aI8009
aa(lp933
I7515
aI7587
aI7588
aa(lp934
I7518
aI7559
aI7657
aI7664
aI7803
aI7858
aa(lp935
I7520
aI7530
aI7738
aI7744
aa(lp936
I7524
aI7545
aI7593
aI7594
aI7646
aI7692
aI7726
aI7740
aI7801
aI7834
aI7923
aI7936
aI8027
aI8034
aI8068
aa(lp937
I7534
aI7628
aI7686
aI7818
aI7819
aa(lp938
I7535
aI7819
aI7875
aI7975
aI7976
aa(lp939
I7550
aI7635
aI7640
aI7676
aI7744
aI7786
aI7850
aI7853
aI7860
aI7941
aI8035
aI8043
aI8096
aI8266
aI8267
aa(lp940
I7563
aI7589
aI7604
aI7667
aI7682
aa(lp941
I7575
aI7585
aI7600
aI7604
aI7668
aI7732
aI7776
aI7788
aI7789
aa(lp942
I7579
aI7583
aI7633
aI7639
aI7675
aI7676
aa(lp943
I7596
aI7667
aI7704
aI7741
aa(lp944
I7599
aI7611
aI7708
aI7779
aI7802
aI7843
aa(lp945
I7610
aI7674
aI7802
aI7951
aI7954
aI7958
aa(lp946
I7612
aI7709
aI7714
aI7764
aI7804
aI7807
aI7899
aI7928
aI7948
aI8103
aI8129
aI8366
aI8367
aa(lp947
I7614
aI7946
aI8000
aI8061
aI8211
aI8339
aI8382
aI8544
aI8574
aI8606
aI8632
aI8713
aI8815
aI8848
aI8862
aI9028
aI9344
aI10037
aa(lp948
I7617
aI7618
aa(lp949
I7619
aI7636
aI7637
aa(lp950
I7632
aI7675
aI7684
aI7703
aI7747
aI7786
aI7865
aI7885
aI7886
aa(lp951
I7636
aI7641
aI7679
aI7730
aI7952
aI7984
aI7985
aa(lp952
I7642
aI7980
aI7985
aI8151
aI8483
aI8763
aI10046
aa(lp953
I7648
aI7671
aI7672
aa(lp954
I7649
aI7672
aI7683
aI7703
aI7707
aI7742
aI7746
aI7757
aI7885
aI7999
aI8078
aI8163
aI8213
aI8214
aa(lp955
I7654
aI7658
aI7671
aI7681
aI7706
aI7707
aa(lp956
I7660
aI7820
aI7824
aI7846
aI7986
aI8002
aI8010
aI8016
aa(lp957
I7673
aI7694
aI7954
aI8148
aI8171
aI8172
aI8309
aI8477
aI8540
aI8542
aI8575
aa(lp958
I7681
aI7697
aI7700
aa(lp959
I7682
aI7732
aI7741
aI7759
aI7767
aI7788
aI7793
aI7810
aI7841
aI7842
aI7845
aI7869
aI7870
aa(lp960
I7693
aI8009
aI8060
aI8172
aI8309
aI8349
aI8395
aI8426
aI8477
aa(lp961
I7695
aI7740
aI7801
aI7834
aI7936
aI7963
aI8034
aI8068
aI8095
aI8143
aI8205
aI8235
aI8305
aI8356
aI8358
aI8402
aI8440
aI8441
aa(lp962
I7696
aI7733
aI7796
aI7817
aI7963
aI7968
aI8143
aI8205
aI8293
aI8300
aI8315
aI8369
aI8375
aI8457
aI8471
aI8603
aI8721
aI8846
aI8916
aI8918
aI10035
aa(lp963
I7700
aI7706
aI7756
aI7757
aa(lp964
I7710
aI7770
aI7807
aI7873
aI7896
aI7992
aI8086
aI8188
aI8189
aI8252
aI8253
aa(lp965
I7711
aI7778
aI7795
aI7798
aI7826
aI7888
aI7889
aa(lp966
I7715
aI7806
aI7911
aI7914
aI7915
aa(lp967
I7722
aI7777
aI7826
aI7888
aI7921
aI7957
aI8018
aI8019
aI8059
aa(lp968
I7728
aI7781
aI7818
aI7875
aI7919
aI7975
aI8026
aI8074
aI8075
aI8134
aI8187
aI8283
aI8310
aI8321
aI8327
aI8328
aa(lp969
I7737
aI7779
aI7843
aI7931
aI7951
aI7959
aI8014
aI8102
aI8125
aa(lp970
I7738
aI7783
aI7850
aI7851
aa(lp971
I7742
aI7746
aI7747
aa(lp972
I7743
aI7808
aI7910
aI7914
aI8048
aI8093
aI8149
aI8150
aa(lp973
I7749
aI7849
aI8040
aI8048
aI8058
aI8069
aI8076
aI8077
aa(lp974
I7767
aI7793
aI7810
aI7832
aI7844
aI7845
aa(lp975
I7772
aI7774
aI7812
aI7841
aI7867
aI7897
aI7955
aI7956
aI7987
aI7995
aI7996
aa(lp976
I7782
aI7872
aI7883
aI7890
aI7891
aa(lp977
I7789
aI7791
aI7870
aI7880
aI7900
aI7961
aI7973
aI7988
aI8046
aI8057
aI8070
aI8071
aa(lp978
I7797
aI7814
aI7817
aI7825
aa(lp979
I7798
aI7799
aI7815
aI7823
aI7827
aI7828
aI7833
aI7901
aI7902
aI7978
aI7979
aI8029
aI8038
aI8142
aI8203
aI8232
aI8249
aI8274
aI8333
aa(lp980
I7809
aI7910
aI7911
aa(lp981
I7825
aI7940
aI7968
aI7994
aI8021
aI8022
aa(lp982
I7832
aI7842
aI7879
aI7897
aI7961
aI7987
aI8007
aa(lp983
I7838
aI7839
aI7866
aI7878
aI7955
aI7982
aI8037
aI8051
aI8052
aa(lp984
I7844
aI7869
aI7879
aI7880
aa(lp985
I7865
aI8003
aI8164
aI8266
aI8317
aI8360
aI8405
aI8408
aI8409
aa(lp986
I7882
aI7883
aa(lp987
I7886
aI8003
aI8078
aI8164
aI8214
aI8262
aI8405
aI8430
aI8531
aI8555
aI8583
aI8690
aI8744
aI8813
aI8821
aI8895
aI8944
aI9006
aI9345
aI9416
aI10040
aa(lp988
I7889
aI7957
aI8019
aI8029
aI8202
aI8203
aa(lp989
I7896
aI7918
aI7992
aI8074
aI8188
aI8217
aI8244
aI8245
aa(lp990
I7898
aI7917
aI7931
aI8014
aI8024
aI8102
aI8158
aI8204
aI8323
aI8378
aI8460
aI8482
aI8484
aI8485
aa(lp991
I7901
aI7978
aI7979
aI8008
aI8038
aI8060
aI8065
aI8084
aI8135
aI8142
aa(lp992
I7904
aI8284
aI8310
aI8314
aI8410
aI8448
aI8452
aI8454
aa(lp993
I7917
aI7927
aI7948
aI8024
aI8204
aI8220
aI8226
aI8450
aI8484
aI8490
aI8491
aa(lp994
I7921
aI7965
aI7969
aI8018
aI8059
aI8123
aI8124
aI8165
aI8202
aI8232
aI8240
aI8241
aa(lp995
I7956
aI7973
aI7995
aI7996
aI8007
aI8046
aI8051
aI8052
aI8056
aI8080
aI8098
aI8112
aI8113
aI8115
aI8116
aI8147
aI8152
aI8223
aI8250
aI8281
aI8282
aa(lp996
I7958
aI7959
aI8125
aI8148
aI8157
aI8158
aI8313
aI8323
aI8378
aI8460
aI8570
aI8577
aI8582
aa(lp997
I7984
aI8050
aI8062
aI8151
aI8229
aI8384
aI8397
aI8421
aI8423
aI8472
aI8492
aI8493
aa(lp998
I7994
aI8293
aI8294
aa(lp999
I8005
aI8040
aI8082
aI8097
aI8117
aI8118
aa(lp1000
I8011
aI8036
aI8043
aI8082
aI8154
aI8155
aa(lp1001
I8016
aI8227
aI8279
aI8292
aI8481
aI8488
aI8553
aI8558
aI8578
aI8619
aI8695
aI8719
aI8727
aI8741
aI8766
aI8776
aI8777
aI8800
aI8849
aI8910
aI8947
aI9007
aI9018
aI9048
aI9077
aI9180
aI9259
aI10033
aa(lp1002
I8017
aI8064
aI8122
aI8137
aI8138
aI8208
aI8286
aI8343
aI8370
aI8371
aa(lp1003
I8021
aI8181
aI8294
aI8300
aI8301
aa(lp1004
I8022
aI8181
aI8182
aa(lp1005
I8026
aI8075
aI8134
aI8187
aI8217
aI8296
aI8379
aI8469
aI8470
aa(lp1006
I8031
aI8089
aI8140
aI8298
aI8299
aa(lp1007
I8054
aI8081
aI8137
aa(lp1008
I8056
aI8070
aI8141
aI8190
aI8320
aI8329
aI8341
aa(lp1009
I8058
aI8077
aI8145
aI8149
aI8219
aI8243
aI8383
aI8386
aI8415
aI8416
aI8472
aI8533
aI8588
aI8663
aI8742
aI8759
aI8797
aI8798
aa(lp1010
I8065
aI8084
aI8135
aI8249
aI8274
aI8349
aI8390
aI8395
aI8403
aI8426
aI8542
aI8550
aI8551
aI8559
aI8585
aI8586
aa(lp1011
I8069
aI8097
aI8109
aa(lp1012
I8071
aI8230
aI8325
aI8332
aI8341
aI8355
aI8388
aI8425
aI8444
aI8459
aI8468
aa(lp1013
I8076
aI8109
aI8118
aI8145
aI8183
aI8201
aI8219
aI8243
aa(lp1014
I8085
aI8228
aI8229
aa(lp1015
I8086
aI8189
aI8199
aI8361
aI8367
aI8465
aI8505
aI8521
aI8543
aa(lp1016
I8094
aI8150
aI8228
aI8383
aI8384
aa(lp1017
I8096
aI8154
aI8215
aI8267
aI8317
aI8360
aI8385
aI8408
aI8415
aI8427
aI8430
aI8473
aI8496
aI8531
aI8547
aI8555
aI8583
aI8648
aI8656
aI8821
aI8895
aI8913
aI8932
aI8933
aa(lp1018
I8103
aI8129
aI8207
aI8220
aI8221
aa(lp1019
I8111
aI8239
aI8458
aI8628
aI8726
aI8770
aI9125
aI9210
aI9211
aa(lp1020
I8112
aI8206
aI8257
aI8295
aI8304
aa(lp1021
I8113
aI8223
aI8250
aI8257
aI8272
aa(lp1022
I8115
aI8116
aI8141
aI8147
aI8152
aI8190
aI8282
aI8319
aI8320
aI8351
aI8353
aI8354
aa(lp1023
I8117
aI8155
aI8183
aI8215
aI8216
aa(lp1024
I8124
aI8165
aI8240
aI8278
aI8307
aI8347
aI8487
aI8511
aI8581
aI8657
aI8658
aa(lp1025
I8157
aI8171
aI8540
aI8566
aI8599
aI8610
aI8633
aI8635
aI8646
aa(lp1026
I8161
aI8212
aI8233
aI8265
aI8606
aI8650
aI8664
aa(lp1027
I8162
aI8213
aI8262
aI8287
aI8326
aI8632
aI8650
aI8664
aI8690
aI8713
aI8744
aI8813
aI8815
aI8931
aI8944
aI8960
aI9005
aI9006
aI9071
aa(lp1028
I8174
aI8192
aI8194
aI8255
aI8258
aI8318
aI8412
aI8548
aI8651
aI8704
aI8723
aI8754
aI8791
aI8853
aI8873
aI9004
aI9015
aI9024
aI9076
aI9100
aI9101
aa(lp1029
I8186
aI8275
aI8286
aI8370
aI8434
aI8442
aa(lp1030
I8199
aI8252
aI8361
aI8362
aI8372
aa(lp1031
I8201
aI8216
aI8385
aI8386
aa(lp1032
I8207
aI8251
aI8366
aI8453
aI8465
aI8505
aI8520
aI8677
aI8738
aI8808
aI8865
aI8866
aa(lp1033
I8209
aI8304
aI8335
aI8343
aI8371
aI8434
aI8435
aI8461
aI8512
aI8517
aI8518
aI8536
aI8565
aI8590
aI8607
aI8621
aI8625
aa(lp1034
I8221
aI8226
aI8251
aI8450
aI8451
aI8622
aI8639
aI8677
aI8840
aI9099
aI9114
aI9115
aa(lp1035
I8241
aI8278
aI8307
aI8333
aI8390
aI8403
aI8511
aI8559
aI8585
aI8658
aI8661
aI8676
aI8682
aI8708
aI8715
aI8746
aI8804
aI8809
aa(lp1036
I8242
aI8292
aI8303
aI8440
aI8488
aI8489
aI8526
aI8553
aI8554
aa(lp1037
I8244
aI8253
aI8330
aI8362
aI8372
aI8404
aI8514
aI8521
aI8522
aI8659
aI8730
aI8731
aa(lp1038
I8245
aI8296
aI8330
aI8404
aI8469
aI8506
aI8832
aI8869
aI8907
aI8908
aa(lp1039
I8272
aI8281
aI8295
aI8335
aI8353
aI8406
aI8435
aI8461
aI8512
aI8513
aa(lp1040
I8273
aI8275
aI8412
aI8527
aI8534
aI8562
aI8563
aa(lp1041
I8313
aI8566
aI8570
aI8589
aa(lp1042
I8314
aI8321
aI8447
aI8448
aa(lp1043
I8319
aI8329
aI8351
aI8354
aI8388
aI8406
aI8513
aI8536
aI8537
aI8609
aI8641
aI8642
aa(lp1044
I8327
aI8379
aI8470
aI8486
aI8506
aa(lp1045
I8328
aI8447
aI8452
aI8476
aI8486
aI8869
aI8870
aa(lp1046
I8332
aI8346
aI8355
aI8425
aI8444
aI8459
aI8487
aI8499
aI8500
aa(lp1047
I8356
aI8358
aI8374
aI8375
aI8402
aI8441
aI8489
aI8501
aI8528
aI8567
aI8580
aI8601
aI8645
aI8652
aI8689
aI8698
aI8758
aI8783
aa(lp1048
I8374
aI8457
aI8503
aI8525
aI8601
aa(lp1049
I8397
aI8439
aI8763
aI9176
aI10045
aa(lp1050
I8409
aI8427
aa(lp1051
I8411
aI8418
aI8454
aI8476
aI8478
aI8665
aI8870
aI8908
aI8925
aI8939
aI8941
aI8958
aI9025
aI9088
aI9093
aI9163
aI9165
aI9194
aI9251
aI9267
aI9268
aI9275
aI9308
aI9330
aI9354
aI9355
aa(lp1052
I8416
aI8473
aI8533
aI8597
aI8598
aa(lp1053
I8421
aI8438
aI8439
aa(lp1054
I8423
aI8438
aI8493
aI8507
aI8760
aI8798
aI8980
aI9131
aI9176
aI10044
aa(lp1055
I8442
aI8517
aI8527
aI8604
aI8605
aa(lp1056
I8451
aI8453
aa(lp1057
I8468
aI8499
aI8573
aI8591
aI8609
aI8614
aI8624
aI8629
aI8630
aa(lp1058
I8471
aI8503
aI8525
aI8528
aI8567
aI8603
aI8652
aI8697
aI8698
aI8699
aa(lp1059
I8482
aI8577
aI8752
aI8782
aI8839
aI8882
aI8899
aI9099
aI9113
aI9130
aI9142
aI9150
aI9162
aI9168
aI9188
aI9218
aI9232
aI9250
aa(lp1060
I8485
aI8490
aI8634
aI8639
aI8752
aI8839
aI8840
aI8882
aa(lp1061
I8491
aI8622
aI8634
aa(lp1062
I8492
aI8507
aI8588
aI8759
aI8760
aa(lp1063
I8496
aI8547
aI8597
aI8648
aI8669
aI8714
aI8884
aI8885
aa(lp1064
I8500
aI8573
aI8581
aI8657
aI8708
aI8765
aI8771
aI8875
aI8876
aI8985
aI9063
aI9064
aa(lp1065
I8501
aI8526
aI8579
aI8580
aa(lp1066
I8514
aI8515
aa(lp1067
I8515
aI8520
aI8522
aI8543
aI8659
aI8730
aI8738
aI8854
aI8855
aI8938
aI9022
aI9033
aI9046
aI9058
aa(lp1068
I8518
aI8565
aI8605
aI8607
aI8621
aI8672
aI8681
aI8835
aI8898
aI8900
aa(lp1069
I8534
aI8548
aI8562
aI8723
aI8754
aI8764
aI8878
aI8879
aI8880
aI8881
aa(lp1070
I8537
aI8590
aI8626
aI8641
aI8673
aI8780
aI8826
aI8843
aa(lp1071
I8550
aI8586
aI8661
aI8683
aI8739
aI8746
aI8748
aI8804
aI9043
aI9079
aI9159
aI9220
aI9294
aI9359
aI9408
aI9470
aI9536
aI9545
aI9569
aI9576
aI9582
aI9627
aI9647
aI9718
aI9738
aI9771
aI9787
aI9788
aa(lp1072
I8551
aI8575
aI8599
aI8739
aI8748
aI8799
aI8858
aI9043
aI9056
aI9098
aI9159
aI9187
aI9220
aI9261
aa(lp1073
I8554
aI8579
aI8645
aI8689
aI8695
aI8783
aI8849
aI8886
aI8910
aI8956
aI9007
aI9048
aI9049
aa(lp1074
I8563
aI8604
aI8681
aI8764
aI8818
aI8844
aI8954
aI8965
aa(lp1075
I8582
aI8589
aI8635
aI8782
aI8788
aI8859
aI8899
aI8901
aI8988
aI9065
aI9130
aI9161
aI9162
aa(lp1076
I8591
aI8624
aI8765
aI8774
aI8819
aa(lp1077
I8598
aI8663
aI8669
aI8823
aI8829
aI8833
aI8834
aa(lp1078
I8610
aI8633
aI8786
aI8799
aa(lp1079
I8614
aI8629
aI8642
aI8843
aI8891
aI8892
aI8946
aI8966
aI8973
aI8978
aI8983
aI8995
aI8997
aI8998
aa(lp1080
I8619
aI8711
aI8719
aI8766
aI8827
aI8928
aI8962
aa(lp1081
I8625
aI8626
aI8672
aI8732
aI8733
aa(lp1082
I8628
aI8706
aI8726
aI8867
aI8893
aI8894
aa(lp1083
I8630
aI8771
aI8774
aI8819
aI8875
aI8891
aI8892
aI8915
aa(lp1084
I8646
aI8786
aI8788
aI8858
aI8859
aI8889
aa(lp1085
I8656
aI8884
aI8913
aI8914
aa(lp1086
I8673
aI8733
aI8787
aI8836
aI8897
aI8898
aI8968
aI8990
aa(lp1087
I8676
aI8682
aI8683
aa(lp1088
I8687
aI8703
aI8791
aI8822
aI8853
aI8872
aI8873
aa(lp1089
I8697
aI8721
aI8762
aI8767
aI8768
aI8846
aI8926
aa(lp1090
I8699
aI8758
aI8762
aI8767
aI8886
aI8887
aa(lp1091
I8702
aI8718
aI8736
aI8737
aa(lp1092
I8710
aI8827
aI8925
aI8928
aI9025
aI9026
aa(lp1093
I8714
aI8829
aI8919
aI8920
aa(lp1094
I8715
aI8809
aI9011
aI9016
aI9017
aI9019
aI9064
aI9078
aI9079
aI9102
aI9108
aI9112
aI9139
aI9226
aI9290
aI9362
aI9386
aI9397
aI9405
aI9462
aI9463
aI9465
aa(lp1095
I8727
aI8741
aI8776
aI8777
aI8800
aI8947
aI8962
aI9018
aI9026
aI9165
aI9179
aI9180
aa(lp1096
I8731
aI8832
aI8907
aI8938
aI8939
aI9009
aI9033
aI9034
aI9035
aa(lp1097
I8732
aI8835
aI8836
aa(lp1098
I8736
aI8761
aI8779
aI8816
aI8830
aI8872
aI8903
aI9015
aI9143
aI9172
aI9207
aI9270
aI9271
aa(lp1099
I8742
aI8797
aI8823
aI8979
aI8980
aa(lp1100
I8753
aI8761
aa(lp1101
I8768
aI8887
aI8916
aI8926
aI8956
aI9049
aI9077
aI10034
aa(lp1102
I8780
aI8787
aI8826
aI8897
aI8966
aI8970
aI8993
aI8994
aa(lp1103
I8808
aI8854
aI8924
aI8961
aI9338
aI9357
aI9375
aI9483
aI9484
aa(lp1104
I8818
aI8900
aI8954
aI8968
aI8977
aI9059
aI9060
aI9061
aI9074
aI9075
aI9118
aI9119
aa(lp1105
I8833
aI8834
aI8920
aI8979
aI9030
aI9131
aI9378
aI10043
aa(lp1106
I8844
aI8879
aI8965
aI8992
aI9044
aI9116
aI9118
aI9123
aI9128
aI9169
aI9178
aI9217
aI9262
aI9310
aI9343
aI9404
aI9510
aI9511
aa(lp1107
I8848
aI8862
aI8931
aI8964
aI9002
aI9020
aI9041
aI9071
aI9344
aI9377
aI10038
aa(lp1108
I8855
aI9022
aI9070
aI9174
aI9258
aI9323
aI9357
aI9358
aa(lp1109
I8865
aI8906
aI8951
aI9115
aI9122
aI9142
aI9337
aI9338
aa(lp1110
I8866
aI8906
aI8923
aI8924
aa(lp1111
I8876
aI8915
aI8985
aI8998
aI9032
aI9053
aI9063
aI9082
aI9137
aI9138
aI9139
aa(lp1112
I8878
aI8881
aI8896
aI8992
aI9044
aI9051
aI9052
aa(lp1113
I8880
aI8896
aI9004
aI9024
aI9083
aI9101
aI9202
aI9236
aI9277
aI9289
aI9318
aI9321
aa(lp1114
I8885
aI8914
aI8919
aI8933
aI9030
aI9089
aI9095
aI9096
aa(lp1115
I8889
aI8901
aI8988
aI9056
aI9057
aI9066
aa(lp1116
I8893
aI9125
aI9126
aa(lp1117
I8894
aI9126
aI9211
aI9222
aI9363
aI9369
aI9437
aI9504
aI9611
aI9684
aI9774
aI9791
aI9794
aI9891
aI9945
aI10010
aa(lp1118
I8923
aI8951
aI8961
aa(lp1119
I8932
aI9095
aI9286
aI9410
aI9416
aI10041
aa(lp1120
I8941
aI8958
aI9009
aI9027
aI9088
aI9146
aI9214
aI9274
aI9324
aI9339
aI9340
aa(lp1121
I8946
aI8973
aI8983
aI8995
aI8997
aI9032
aI9086
aI9104
aI9156
aI9164
aI9203
aI9204
aa(lp1122
I8960
aI8964
aI9002
aI9020
aI9041
aa(lp1123
I8970
aI8977
aI8990
aI8993
aI9061
aI9111
aI9129
aI9147
aI9148
aa(lp1124
I8978
aI8994
aI9086
aI9104
aI9148
aI9160
aI9164
aI9203
aI9229
aI9234
aI9260
aI9312
aI9333
aI9372
aI9396
aI9439
aI9448
aI9468
aI9487
aI9488
aa(lp1125
I9005
aI9345
aI9377
aI10039
aa(lp1126
I9011
aI9016
aI9108
aI9109
aa(lp1127
I9017
aI9019
aI9078
aI9102
aI9109
aI9112
aI9290
aI9293
aI9294
aI9304
aa(lp1128
I9027
aI9035
aI9146
aI9196
aI9239
aI9252
aI9253
aa(lp1129
I9034
aI9058
aI9196
aI9200
aa(lp1130
I9046
aI9070
aI9174
aI9200
aI9239
aI9258
aI9323
aI9358
aI9367
aI9484
aI9519
aI9538
aI9540
aa(lp1131
I9051
aI9236
aI9242
aI9244
aI9245
aa(lp1132
I9052
aI9116
aI9123
aI9128
aI9178
aI9217
aI9245
aI9278
aI9310
aI9318
aI9404
aI9419
aI9422
aI9423
aa(lp1133
I9053
aI9082
aI9156
aI9204
aI9225
aI9235
aI9260
aI9312
aI9313
aa(lp1134
I9057
aI9065
aI9066
aI9098
aI9161
aI9187
aI9188
aI9256
aI9320
aI9409
aI9470
aI9471
aa(lp1135
I9059
aI9060
aI9074
aI9119
aI9121
aI9169
aI9212
aI9262
aI9263
aa(lp1136
I9072
aI9092
aI9135
aI9382
aI9389
aI9403
aI9413
aI9461
aI9464
aI9501
aI9502
aa(lp1137
I9075
aI9111
aI9121
aI9134
aI9212
aI9215
aI9237
aI9249
aI9264
aI9269
aI9281
aI9295
aI9305
aI9311
aa(lp1138
I9076
aI9083
aa(lp1139
I9089
aI9287
aI9378
aI9410
aI10042
aa(lp1140
I9093
aI9163
aI9251
aI9283
aI9324
aI9340
aI9444
aI9446
aI9457
aI9490
aI9544
aI9565
aI9606
aI9747
aI9748
aI10027
aa(lp1141
I9096
aI9286
aI9287
aa(lp1142
I9100
aI9172
aI9202
aI9289
aI9327
aI9328
aa(lp1143
I9113
aI9114
aI9122
aa(lp1144
I9129
aI9134
aI9147
aI9160
aI9229
aI9234
aI9237
aI9254
aI9279
aI9314
aI9401
aI9411
aI9412
aa(lp1145
I9137
aI9225
aI9233
aI9238
aa(lp1146
I9138
aI9226
aI9233
aI9288
aI9362
aI9386
aI9462
aI9533
aI9559
aI9564
aI9566
aI9567
aa(lp1147
I9150
aI9168
aI9250
aI9296
aI9337
aI9375
aI9376
aa(lp1148
I9179
aI9194
aI9259
aI9267
aI9268
aI9330
aI9560
aI10032
aa(lp1149
I9207
aI9271
aI9327
aI9373
aI9393
aI9431
aI9432
aa(lp1150
I9214
aI9253
aI9297
aI9298
aa(lp1151
I9215
aI9269
aI9281
aI9299
aI9311
aI9454
aI9455
aa(lp1152
I9218
aI9232
aI9256
aI9296
aI9332
aI9424
aI9471
aI9549
aI9569
aI9570
aa(lp1153
I9235
aI9238
aI9288
aI9313
aI9333
aI9425
aI9429
aI9566
aI9578
aa(lp1154
I9242
aI9244
aI9277
aI9278
aa(lp1155
I9249
aI9263
aI9264
aI9299
aI9305
aI9343
aI9361
aI9394
aI9395
aa(lp1156
I9252
aI9297
aI9350
aI9367
aI9402
aI9459
aI9460
aI9519
aI9540
aI9558
aI9577
aI9634
aI9635
aa(lp1157
I9254
aI9279
aI9295
aI9314
aI9411
aI9428
aI9455
aI9476
aI9481
aI9513
aI9574
aI9581
aI9588
aI9637
aI9649
aI9650
aa(lp1158
I9261
aI9320
aI9359
aI9408
aI9409
aa(lp1159
I9270
aI9336
aI9383
aI9393
aI9399
aI9400
aI9430
aa(lp1160
I9274
aI9298
aI9350
aI9398
aI9402
aI9460
aI9466
aI9467
aI9495
aI9496
aa(lp1161
I9275
aI9283
aI9427
aI9457
aI9490
aI9491
aa(lp1162
I9293
aI9304
aI9397
aI9500
aI9536
aI9537
aa(lp1163
I9308
aI9354
aI9421
aI9427
aI9491
aI9503
aI9565
aI9617
aI9623
aI10029
aa(lp1164
I9321
aI9328
aI9373
aI9419
aI9433
aI9452
aI9479
aI9499
aI9507
aI9555
aI9556
aa(lp1165
I9332
aI9376
aI9424
aI9483
aI9534
aI9538
aI9549
aI9550
aI9557
aI9558
aa(lp1166
I9336
aI9383
aI9400
aI9436
aI9474
aI9516
aI9547
aI9573
aI9687
aI9688
aa(lp1167
I9339
aI9398
aI9444
aI9466
aI9531
aI9532
aa(lp1168
I9355
aI9421
aI9503
aI9560
aI9624
aI10031
aa(lp1169
I9361
aI9394
aI9454
aI9458
aI9480
aI9481
aa(lp1170
I9369
aI9438
aI9441
aI9504
aI9505
aa(lp1171
I9372
aI9425
aI9429
aI9439
aI9448
aI9488
aI9567
aI9578
aI9594
aI9595
aI9621
aI9639
aI9645
aI9646
aa(lp1172
I9382
aI9403
aI9435
aI9461
aI9502
aI9516
aI9539
aI9719
aI9733
aI9734
aI9735
aa(lp1173
I9395
aI9458
aI9480
aI9511
aI9541
aI9588
aI9602
aI9637
aI9649
aI9708
aI9717
aI9744
aI9753
aI9837
aI9846
aI9847
aa(lp1174
I9396
aI9401
aI9412
aI9428
aI9468
aI9476
aI9477
aI9513
aI9574
aI9581
aI9590
aI9591
aa(lp1175
I9405
aI9465
aI9492
aI9500
aI9528
aI9586
aI9625
aI9644
aI9655
aI9664
aI9674
aa(lp1176
I9422
aI9433
aI9509
aI9546
aI9592
aI9642
aI9697
aI9698
aa(lp1177
I9423
aI9510
aI9541
aI9592
aI9662
aI9698
aI9721
aI9732
aI9763
aI9764
aa(lp1178
I9430
aI9431
aI9474
aI9478
aI9555
aI9632
aI9653
aI9681
aI9688
aI9689
aI9715
aI9740
aI9741
aa(lp1179
I9432
aI9478
aI9479
aa(lp1180
I9437
aI9438
aa(lp1181
I9446
aI9532
aI9544
aI9597
aI9606
aI9706
aI9747
aI10026
aa(lp1182
I9452
aI9499
aI9507
aI9509
aI9546
aI9556
aI9629
aI9632
aI9640
aI9642
aI9648
aI9653
aI9681
aI9686
aI9689
aI9690
aa(lp1183
I9459
aI9467
aI9530
aI9571
aI9596
aI9635
aI9706
aI9768
aI10025
aa(lp1184
I9463
aI9492
aI9528
aI9533
aI9586
aI9604
aa(lp1185
I9464
aI9485
aI9497
aI9498
aa(lp1186
I9477
aI9487
aI9590
aI9591
aI9594
aI9601
aI9620
aI9650
aI9700
aI9701
aI9708
aI9746
aI9753
aI9754
aI9802
aI9818
aI9822
aI9843
aI9854
aI9857
aI9859
aI9860
aI9862
aa(lp1187
I9485
aI9501
aI9525
aI9543
aI9563
aI9613
aI9657
aI9676
aI9719
aI9749
aI9750
aa(lp1188
I9495
aI9496
aI9530
aI9531
aI9571
aI9596
aI9597
aa(lp1189
I9498
aI9515
aI9524
aI9525
aa(lp1190
I9505
aI9551
aI9575
aI9611
aI9612
aa(lp1191
I9524
aI9542
aI9543
aa(lp1192
I9534
aI9550
aI9557
aI9570
aI9576
aI9577
aI9582
aI9608
aI9643
aI9710
aI9722
aI9724
aa(lp1193
I9537
aI9545
aI9659
aI9664
aI9672
aI9673
aa(lp1194
I9539
aI9547
aI9573
aI9651
aI9652
aa(lp1195
I9559
aI9564
aI9604
aI9621
aI9625
aI9644
aI9646
aI9703
aI9704
aI9707
aI9729
aI9730
aI9739
aa(lp1196
I9575
aI9658
aI9663
aI9676
aI9749
aI9867
aI9903
aI9967
aI9974
aI10002
aI10003
aI10012
aa(lp1197
I9595
aI9601
aI9639
aI9645
aI9694
aI9702
aI9703
aI9704
aI9729
aI9767
aI9778
aI9784
aI9802
aI9822
aI9843
aI9865
aI9911
aI9920
aI9939
aI9948
aI9949
aa(lp1198
I9602
aI9662
aI9716
aI9717
aa(lp1199
I9608
aI9643
aI9718
aI9722
aI9742
aI9752
aa(lp1200
I9612
aI9663
aI9684
aI9685
aa(lp1201
I9617
aI9624
aI10030
aa(lp1202
I9620
aI9694
aI9701
aI9702
aa(lp1203
I9623
aI9748
aI10028
aa(lp1204
I9627
aI9647
aI9659
aI9660
aa(lp1205
I9629
aI9640
aI9648
aI9686
aI9697
aI9732
aI9751
aI9765
aI9766
aI9776
aI9777
aa(lp1206
I9634
aI9710
aI9768
aI9836
aI10024
aa(lp1207
I9651
aI9735
aI9816
aI9817
aa(lp1208
I9652
aI9687
aI9740
aI9781
aI9817
aI9824
aI9968
aI9984
aI10003
aI10004
aI10009
aI10013
aa(lp1209
I9655
aI9672
aI9674
aI9691
aI9707
aI9731
aI9755
aI9796
aI9807
aI9827
aI9832
aI9835
aI9848
aI9852
aa(lp1210
I9660
aI9673
aI9691
aI9738
aI9760
aI9796
aI9827
aI9833
aI9842
aa(lp1211
I9685
aI9774
aI9794
aI9903
aI9945
aI9974
aI10002
aI10011
aa(lp1212
I9690
aI9715
aI9751
aI9765
aI9800
aI9809
aI9829
aI9841
aI9850
aI9853
aI9888
aI9892
aa(lp1213
I9700
aI9746
aI9754
aI9837
aI9838
aI9855
aI9875
aI9876
aa(lp1214
I9716
aI9721
aI9744
aI9846
aI9874
aI9877
aI9882
aa(lp1215
I9724
aI9752
aI9792
aI9814
aI9836
aI9870
aI10023
aa(lp1216
I9730
aI9731
aI9739
aI9755
aI9767
aI9778
aI9783
aI9784
aI9785
aa(lp1217
I9733
aI9734
aI9750
aI9816
aI9867
aI9967
aI9968
aa(lp1218
I9741
aI9781
aI9824
aI9829
aI9841
aI9863
aI9917
aI9984
aI9985
aa(lp1219
I9742
aI9788
aI9792
aI9814
aI9870
aI9872
aI10022
aa(lp1220
I9760
aI9771
aI9842
aI9887
aI9889
aI9890
aa(lp1221
I9763
aI9777
aI9811
aI9844
aI9845
aa(lp1222
I9764
aI9844
aI9874
aI9913
aI9914
aa(lp1223
I9766
aI9776
aI9800
aI9809
aI9811
aI9845
aI9850
aI9888
aI9893
aI9894
aI9913
aI9921
aI9935
aI9936
aa(lp1224
I9783
aI9807
aI9832
aI9833
aI9851
aI9852
aI9887
aI9889
aI9916
aI9955
aI9956
aI10020
aa(lp1225
I9785
aI9916
aI9949
aI9955
aI9991
aI10019
aa(lp1226
I9787
aI9872
aI9890
aI9956
aI10021
aa(lp1227
I9818
aI9854
aI9859
aI9876
aI9884
aI9900
aI9904
aI9910
aI9925
aI9926
aa(lp1228
I9835
aI9848
aI9851
aa(lp1229
I9838
aI9847
aI9855
aI9875
aI9877
aI9884
aI9896
aI9905
aI9908
aI9922
aI9924
aI9925
aI9927
aI9942
aI9943
aa(lp1230
I9853
aI9863
aI9892
aI9893
aI9894
aI9917
aI9921
aI9933
aI9934
aI9938
aI9958
aI9961
aI9964
aI9965
aI9966
aa(lp1231
I9857
aI9865
aI9901
aI9904
aI9911
aI9919
aI9920
aa(lp1232
I9860
aI9862
aI9900
aI9901
aa(lp1233
I9882
aI9896
aI9905
aI9914
aI9936
aI9941
aI9946
aI9947
aI9952
aI9962
aI9970
aI9976
aI9977
aa(lp1234
I9908
aI9922
aI9924
aI9941
aI9942
aI9943
aI9977
aI9988
aI9999
aI10001
aI10017
aa(lp1235
I9910
aI9919
aI9939
aI9948
aI9975
aI9989
aI9991
aI10001
aI10018
aa(lp1236
I9926
aI9927
aI9975
aI9988
aI9989
aa(lp1237
I9933
aI9934
aI9935
aI9938
aI9946
aI9961
aI9966
aI9981
aI10000
aI10005
aI10008
aI10015
aa(lp1238
I9947
aI9952
aI9962
aI9970
aI9976
aI9999
aI10000
aI10016
aa(lp1239
I9958
aI9964
aI9985
aI9987
aI9994
aI10004
aI10007
aI10050
aa(lp1240
I9965
aI9981
aI9987
aI9994
aI10005
aI10008
aI10014
aI10050
aa.