(lp1
(lp2
a(lp3
a(lp4
a(lp5
a(lp6
a(lp7
I19
aI20
aI23
aI72
aI102
aa(lp8
I22
aI30
aI31
aI32
aI35
aI36
aI42
aI48
aI49
aI53
aI86
aI87
aI93
aa(lp9
I27
aI40
aa(lp10
a(lp11
a(lp12
a(lp13
a(lp14
a(lp15
a(lp16
a(lp17
a(lp18
a(lp19
a(lp20
I110
aa(lp21
a(lp22
a(lp23
a(lp24
a(lp25
a(lp26
a(lp27
a(lp28
I217
aI219
aI220
aI221
aI222
aI223
aI224
aI225
aI226
aI230
aI338
aI347
aI454
aI514
aI658
aI659
aI688
aI767
aI912
aI918
aI931
aI979
aI1005
aI1009
aI1010
aI1011
aI1018
aI1021
aI1025
aI1026
aI1027
aI1047
aI1068
aI1084
aI1086
aI1087
aI1088
aI1089
aI1090
aI1099
aI1104
aI1111
aI1124
aI1151
aI1173
aI1191
aa(lp29
a(lp30
a(lp31
a(lp32
a(lp33
a(lp34
a(lp35
a(lp36
a(lp37
a(lp38
a(lp39
a(lp40
a(lp41
a(lp42
a(lp43
a(lp44
a(lp45
a(lp46
a(lp47
a(lp48
a(lp49
a(lp50
a(lp51
a(lp52
a(lp53
a(lp54
I228
aI237
aa(lp55
a(lp56
a(lp57
I233
aI245
aI246
aI265
aI305
aI324
aI339
aa(lp58
I250
aI252
aI262
aI267
aa(lp59
a(lp60
a(lp61
a(lp62
a(lp63
a(lp64
a(lp65
a(lp66
a(lp67
I287
aI297
aI304
aa(lp68
a(lp69
I321
aI370
aI378
aa(lp70
a(lp71
a(lp72
a(lp73
a(lp74
I317
aI331
aI332
aa(lp75
a(lp76
a(lp77
a(lp78
a(lp79
a(lp80
a(lp81
a(lp82
I374
aa(lp83
a(lp84
a(lp85
a(lp86
a(lp87
I404
aI602
aI603
aI604
aI605
aI612
aI622
aI628
aI647
aI672
aI673
aI686
aI761
aa(lp88
a(lp89
a(lp90
a(lp91
a(lp92
I389
aI391
aI393
aI394
aI395
aI397
aI402
aI403
aI419
aI420
aI428
aI432
aI439
aI468
aI473
aI480
aI481
aI488
aI489
aI518
aI549
aI600
aI601
aI610
aI616
aI643
aI712
aI733
aI754
aI836
aI837
aI840
aI841
aI849
aI850
aI854
aI855
aI858
aI861
aI865
aI866
aI874
aI880
aI888
aI899
aI905
aI908
aI910
aI911
aI926
aI939
aI943
aI947
aI948
aI949
aI953
aI954
aI995
aa(lp93
a(lp94
a(lp95
I401
aI425
aI431
aI435
aI491
aa(lp96
a(lp97
a(lp98
a(lp99
a(lp100
a(lp101
a(lp102
a(lp103
I467
aI478
aI502
aI568
aI571
aa(lp104
a(lp105
a(lp106
I483
aI484
aI495
aa(lp107
I453
aI476
aI555
aa(lp108
I517
aa(lp109
a(lp110
a(lp111
a(lp112
a(lp113
I490
aa(lp114
a(lp115
I510
aI594
aI608
aI609
aI615
aI620
aI621
aI626
aI627
aI631
aI665
aI677
aI691
aa(lp116
a(lp117
a(lp118
a(lp119
a(lp120
a(lp121
a(lp122
I523
aa(lp123
a(lp124
a(lp125
a(lp126
a(lp127
a(lp128
a(lp129
a(lp130
a(lp131
a(lp132
a(lp133
a(lp134
a(lp135
a(lp136
a(lp137
a(lp138
a(lp139
a(lp140
a(lp141
I680
aI685
aI773
aI775
aI779
aI780
aI786
aI787
aI792
aI793
aI796
aI831
aI1064
aI1067
aI1080
aI1102
aI1119
aI1126
aI1135
aI1158
aI1160
aI1175
aI1184
aI1190
aI1201
aI1210
aI1215
aI1241
aI1242
aI1243
aI1245
aI1254
aI1265
aI1272
aI1282
aI1296
aI1299
aI1396
aI1410
aI1444
aI1445
aI1449
aI1472
aI1513
aI1514
aI1600
aI1605
aI1672
aI1772
aa(lp142
I632
aI633
aI634
aI635
aI637
aa(lp143
a(lp144
a(lp145
a(lp146
a(lp147
I675
aI676
aI687
aI735
aI736
aI777
aI794
aI795
aI799
aI810
aI828
aI829
aI834
aI966
aI1100
aI1115
aI1116
aa(lp148
a(lp149
a(lp150
I711
aI772
aa(lp151
I813
aI820
aI856
aI857
aI889
aI895
aI935
aI975
aI985
aI1004
aI1106
aI1176
aI1325
aI1342
aI1395
aI1404
aI1454
aI1528
aI1590
aI1619
aI1645
aI1665
aI1668
aI1669
aI1711
aI1725
aI1734
aI1735
aI1770
aI1801
aI1821
aI1916
aI1928
aI2068
aI2121
aI2122
aI2132
aI2160
aa(lp152
a(lp153
a(lp154
a(lp155
a(lp156
a(lp157
a(lp158
a(lp159
a(lp160
a(lp161
a(lp162
I724
aI753
aI863
aI868
aI871
aI872
aI885
aI886
aI890
aa(lp163
a(lp164
a(lp165
a(lp166
a(lp167
a(lp168
a(lp169
a(lp170
a(lp171
a(lp172
a(lp173
I851
aa(lp174
I875
aI876
aI877
aI878
aI879
aI913
aI950
aI971
aI982
aI996
aI1003
aI1015
aI1024
aI1041
aI1042
aI1050
aI1051
aI1054
aI1058
aI1059
aI1060
aI1061
aI1062
aI1063
aI1065
aI1070
aI1074
aI1078
aI1079
aI1093
aI1096
aI1097
aI1141
aI1145
aI1149
aI1240
aI1259
aI1260
aI1283
aI1300
aI1303
aI1304
aI1311
aI1316
aI1322
aI1323
aI1328
aI1329
aI1331
aI1333
aI1334
aI1335
aI1339
aI1354
aI1366
aI1377
aI1379
aI1384
aI1387
aI1391
aI1392
aI1393
aI1419
aI1428
aI1430
aI1435
aI1456
aI1457
aI1461
aI1469
aI1470
aI1475
aI1483
aI1486
aI1490
aI1501
aI1502
aI1508
aI1516
aI1524
aI1525
aI1526
aI1527
aI1532
aI1535
aI1539
aI1540
aI1548
aI1551
aI1553
aI1565
aI1568
aI1569
aI1575
aI1577
aI1599
aI1603
aI1604
aI1613
aI1614
aI1615
aI1617
aI1620
aI1625
aI1628
aI1630
aI1631
aI1632
aI1633
aI1635
aI1641
aI1642
aI1655
aI1658
aI1670
aI1671
aI1678
aI1692
aI1693
aI1701
aI1703
aI1704
aI1706
aI1714
aI1727
aI1729
aI1730
aI1737
aI1760
aI1792
aI1795
aI1838
aI1841
aI1842
aI1849
aI1854
aI1866
aI1873
aI1885
aI1887
aI1888
aI1889
aI1895
aI1899
aI1909
aI1914
aI1915
aI1938
aI1939
aI1940
aI1941
aI1944
aI1945
aI1949
aI1952
aI1985
aI1986
aI1993
aI1994
aI1997
aI2016
aI2073
aI2137
aI2302
aI2313
aI2322
aI2323
aI2327
aI2328
aI2336
aI2354
aI2489
aI2509
aI2513
aI2539
aI2542
aI2567
aI2600
aI2601
aI2677
aI2713
aI2714
aI2725
aI2737
aI2738
aI2741
aI2746
aI2757
aI2758
aI2759
aI2777
aI2780
aI2781
aI2784
aI2786
aI2791
aI2792
aI2793
aI2798
aI2804
aI2805
aI2813
aI2828
aI2829
aI2833
aI2834
aI2837
aI2838
aI2839
aI2841
aI2842
aI2845
aI2846
aI2847
aI2848
aI2863
aI2902
aI2903
aI2914
aI2915
aI2916
aI2944
aI2950
aI2961
aI2964
aI2967
aI2971
aI2980
aI2998
aI3010
aI3011
aI3012
aI3013
aI3019
aI3030
aI3036
aI3037
aI3083
aI3084
aI3093
aI3112
aI3115
aI3122
aI3138
aI3239
aI3274
aI3304
aI3380
aI3415
aI3479
aI3484
aI3507
aa(lp175
a(lp176
a(lp177
I808
aa(lp178
a(lp179
a(lp180
I898
aI919
aI937
aI938
aI942
aI956
aI957
aI991
aI999
aI1008
aI1075
aI1085
aI1098
aI1103
aI1136
aI1139
aI1174
aa(lp181
a(lp182
I839
aI842
aI844
aI859
aa(lp183
a(lp184
a(lp185
a(lp186
a(lp187
a(lp188
a(lp189
a(lp190
a(lp191
a(lp192
a(lp193
a(lp194
I986
aI987
aI989
aa(lp195
a(lp196
a(lp197
I968
aa(lp198
a(lp199
a(lp200
I994
aI997
aI1022
aI1105
aI1108
aI1109
aI1122
aI1137
aI1140
aI1144
aI1182
aI1207
aI1221
aI1229
aI1247
aI1250
aI1256
aI1274
aI1309
aI1362
aI1412
aI1509
aI1529
aI1576
aa(lp201
I993
aa(lp202
a(lp203
a(lp204
a(lp205
I1226
aI1227
aI1233
aa(lp206
a(lp207
a(lp208
a(lp209
a(lp210
a(lp211
a(lp212
I1081
aI1152
aa(lp213
I1169
aI1170
aI1183
aI1187
aI1197
aI1211
aa(lp214
a(lp215
I1107
aa(lp216
a(lp217
I1264
aI1389
aI1423
aI1424
aI1427
aI1433
aI1492
aI1530
aI1536
aI1541
aI1550
aI1554
aI1560
aa(lp218
a(lp219
a(lp220
a(lp221
a(lp222
I1285
aI1344
aI1397
aa(lp223
a(lp224
I1205
aI1420
aI1506
aI1761
aI1831
aI2026
aa(lp225
a(lp226
I1399
aa(lp227
I1275
aa(lp228
a(lp229
I1237
aa(lp230
a(lp231
I1255
aI1257
aI1266
aI1273
aI1288
aI1324
aI1336
aI1357
aI1361
aI1374
aI1381
aI1382
aI1388
aI1426
aI1429
aI1431
aI1437
aI1440
aI1443
aI1446
aI1463
aI1488
aI1507
aa(lp232
a(lp233
a(lp234
a(lp235
I1287
aa(lp236
a(lp237
a(lp238
a(lp239
a(lp240
a(lp241
a(lp242
a(lp243
a(lp244
I1414
aa(lp245
a(lp246
a(lp247
a(lp248
a(lp249
a(lp250
a(lp251
a(lp252
I1744
aI1747
aI1751
aI1766
aI1860
aI1901
aI1965
aI1966
aI2012
aI2014
aI2015
aI2040
aI2041
aI2046
aI2065
aI2133
aI2134
aI2151
aI2158
aI2159
aI2161
aI2175
aI2193
aI2227
aI2239
aI2273
aI2279
aI2280
aI2281
aI2287
aI2299
aI2307
aI2312
aI2333
aI2334
aI2341
aI2343
aI2347
aI2363
aI2367
aI2387
aI2388
aI2401
aI2406
aI2408
aI2423
aI2437
aI2442
aI2463
aI2484
aI2497
aI2527
aI2545
aI2548
aI2587
aI2625
aI2730
aI2767
aI2773
aa(lp253
a(lp254
a(lp255
I1438
aI1439
aI1451
aI1458
aI1467
aa(lp256
a(lp257
a(lp258
I1638
aI1680
aI1742
aa(lp259
a(lp260
a(lp261
I1696
aI1788
aI1789
aI1794
aI1824
aI1825
aI1830
aI1836
aI1863
aI1896
aI2059
aI2060
aI2083
aI2169
aa(lp262
a(lp263
a(lp264
I1634
aI1647
aI1657
aI1777
aI1802
aI1868
aa(lp265
a(lp266
a(lp267
a(lp268
a(lp269
a(lp270
I1564
aI1609
aa(lp271
I1578
aI1596
aI1649
aI1712
aI1719
aI1720
aI1749
aI1758
aa(lp272
a(lp273
I1597
aa(lp274
a(lp275
a(lp276
a(lp277
a(lp278
a(lp279
I1639
aI1652
aI1688
aI1689
aI1691
aI1709
aa(lp280
I1685
aI1694
aI1726
aI1739
aI1791
aI1886
aa(lp281
a(lp282
a(lp283
I1806
aa(lp284
a(lp285
I1682
aI1810
aI1865
aI2079
aa(lp286
I1732
aI1764
aa(lp287
a(lp288
a(lp289
a(lp290
I1754
aa(lp291
a(lp292
I1920
aI1959
aI2020
aI2317
aI2475
aI2534
aI2579
aI2652
aa(lp293
I1785
aa(lp294
a(lp295
a(lp296
a(lp297
a(lp298
I1813
aa(lp299
a(lp300
I1874
aI1912
aI1913
aI1919
aI1926
aa(lp301
a(lp302
I1829
aI1878
aa(lp303
a(lp304
I1947
aI1948
aI1951
aI2061
aI2062
aI2097
aI2106
aI2228
aI2232
aI2236
aa(lp305
a(lp306
a(lp307
a(lp308
I2206
aI2234
aI2240
aI2264
aI2265
aI2268
aI2315
aa(lp309
a(lp310
I1882
aI1907
aI1908
aa(lp311
a(lp312
I1917
aI1929
aI1930
aI1933
aI1934
aI1935
aI1943
aa(lp313
I2605
aa(lp314
I1955
aa(lp315
I1950
aI1960
aI1961
aI1975
aI1976
aI2005
aI2008
aI2011
aI2018
aI2024
aI2025
aI2033
aI2039
aI2042
aa(lp316
I2053
aI2123
aI2201
aI2499
aI2549
aI2550
aI2576
aI2648
aI2690
aI2691
aI2698
aI2699
aI2708
aI2709
aI2710
aI2711
aI2712
aI2719
aI2721
aI2722
aI2744
aI2817
aI2818
aI2843
aa(lp317
I1958
aI1978
aa(lp318
a(lp319
a(lp320
a(lp321
a(lp322
I2071
aa(lp323
a(lp324
I2305
aI2311
aI2402
aI2638
aI2642
aI2683
aI2684
aI2787
aI2901
aI2904
aI3076
aI3342
aI3509
aI3544
aI3602
aI3616
aI3625
aI3637
aI3661
aI3675
aI3774
aI3817
aI3840
aa(lp325
a(lp326
a(lp327
I2013
aI2023
aI2037
aa(lp328
I2126
aa(lp329
a(lp330
I2055
aI2089
aI2143
aI2163
aI2183
aI2189
aI2214
aa(lp331
I2067
aa(lp332
a(lp333
I2149
aa(lp334
I2077
aa(lp335
a(lp336
I2105
aI2115
aI2187
aI2188
aI2217
aI2242
aa(lp337
a(lp338
I2103
aa(lp339
a(lp340
I2377
aa(lp341
a(lp342
I2116
aI2156
aa(lp343
I2170
aI2225
aI2284
aI2298
aI2301
aI2350
aI2421
aI2438
aa(lp344
a(lp345
I2164
aI2165
aI2178
aI2199
aa(lp346
I2153
aa(lp347
a(lp348
a(lp349
I2144
aI2168
aa(lp350
I2256
aI2257
aI2290
aI2308
aI2324
aI2325
aI2345
aI2346
aI2369
aa(lp351
a(lp352
I2366
aI2455
aI2496
aI2655
aI2820
aI2821
aI2835
aI2855
aI2864
aI2920
aa(lp353
a(lp354
a(lp355
I2250
aa(lp356
I2270
aI2339
aI2384
aa(lp357
a(lp358
I2335
aa(lp359
a(lp360
a(lp361
I2389
aI2392
aI2393
aI2403
aI2477
aa(lp362
a(lp363
I2674
aI2720
aI2729
aI2814
aI2888
aI2910
aI2933
aI3102
aI3245
aa(lp364
a(lp365
a(lp366
I2395
aI2409
aI2413
aI2428
aI2429
aI2461
aI2462
aI2473
aI2488
aa(lp367
a(lp368
I2431
aa(lp369
a(lp370
I2375
aI2443
aI2453
aI2470
aI2485
aI2486
aI2519
aI2520
aI2573
aa(lp371
a(lp372
a(lp373
I2515
aI2528
aI2559
aa(lp374
I2381
aa(lp375
I2525
aI2672
aI2673
aI2694
aI2696
aI2778
aI2877
aI2893
aa(lp376
I2368
aI2411
aI2426
aI2434
aa(lp377
a(lp378
I2707
aI2770
aI2806
aI2824
aI2884
aI2909
aI2992
aI2999
aI3000
aI3004
aI3054
aI3091
aI3105
aI3142
aI3143
aI3161
aI3246
aI3264
aI3330
aI3364
aI3365
aI3467
aI3512
aI3514
aI3554
aI3558
aI3656
aI3660
aI3746
aI3806
aI3825
aI3848
aI3888
aI3889
aI3918
aI3936
aI3948
aI3963
aI3964
aI4015
aI4030
aI4051
aI4062
aI4063
aI4082
aI4101
aI4102
aI4107
aI4112
aI4113
aI4127
aI4163
aI4168
aI4190
aI4235
aI4255
aI4256
aI4316
aI4368
aI4369
aI4396
aI4413
aI4416
aI4417
aI4418
aI4419
aI4449
aI4460
aI4461
aI4462
aI4463
aI4502
aI4546
aI4556
aI4561
aI4562
aI4585
aI4586
aI4591
aI4622
aI4628
aI4647
aI4671
aI4672
aI4688
aI4707
aI4722
aI4723
aI4726
aI4727
aI4729
aI4730
aI4731
aI4741
aI4757
aI4780
aI4794
aI4846
aI4847
aI4855
aI4865
aI4907
aI4979
aI4999
aI5019
aI5211
aI5227
aI5270
aI5322
aI5439
aI5507
aa(lp379
a(lp380
a(lp381
I2378
aI2588
aI2598
aI2850
aI3022
aI3167
aI3170
aI3210
aI3232
aI3233
aI3234
aI3259
aI3269
aI3287
aI3300
aI3340
aI3357
aI3367
aI3388
aa(lp382
a(lp383
a(lp384
a(lp385
a(lp386
a(lp387
a(lp388
a(lp389
a(lp390
a(lp391
I2678
aa(lp392
a(lp393
a(lp394
I2591
aI2754
aI2823
aI2853
aI2868
aI2886
aI2926
aa(lp395
a(lp396
a(lp397
I3733
aI3905
aI3919
aI3962
aI4094
aI4095
aI4224
aI4358
aI4359
aI4428
aI4490
aI4564
aI4651
aI4664
aa(lp398
I2630
aI2667
aI2702
aI2776
aa(lp399
I2688
aI2742
aa(lp400
a(lp401
a(lp402
I2593
aI2594
aI2606
aI2613
aI2614
aI2615
aI2624
aa(lp403
I2569
aI2584
aI2585
aI2592
aI2646
aI2649
aI2650
aI2671
aI2723
aa(lp404
a(lp405
I2603
aI2611
aa(lp406
a(lp407
a(lp408
I2654
aI2661
aI2685
aI2686
aI2705
aI2706
aI2717
aI2718
aI2751
aa(lp409
I2617
aa(lp410
I2849
aI2878
aI2879
aI2890
aI2895
aI2896
aI2919
aI2960
aI2966
aI2993
aI2995
aI3043
aI3046
aI3047
aI3065
aI3205
aI3235
aI3247
aI3279
aI3298
aI3478
aI3527
aI3612
aI4069
aI4070
aI4172
aI4201
aa(lp411
a(lp412
a(lp413
a(lp414
a(lp415
a(lp416
I2815
aI2899
aI2941
aa(lp417
I2764
aI2857
aI2958
aI3062
aI3111
aI3116
aI3123
aI3177
aI3199
aa(lp418
a(lp419
I2788
aI2789
aI2796
aI2797
aI2801
aa(lp420
a(lp421
a(lp422
a(lp423
a(lp424
a(lp425
I3094
aI3109
aI3110
aI3128
aI3145
aI3185
aI3260
aI3353
aI3368
aI3374
aI3381
aI3510
aI3516
aI3517
aI3520
aI3525
aI3542
aI3543
aI3549
aI3551
aI3589
aa(lp426
I2775
aI2790
aI2803
aI2811
aI2812
aa(lp427
a(lp428
I2951
aI3118
aI3347
aI3474
aI3499
aI3670
aa(lp429
I2906
aI2907
aI2918
aI2935
aI2990
aa(lp430
a(lp431
a(lp432
I3173
aI3174
aI3227
aI3270
aa(lp433
I2939
aI2947
aI2976
aI2977
aI3382
aI3389
aI3463
aI4222
aI4448
aI4887
aI4918
aI4931
aI4957
aI4961
aI5004
aI5107
aI5472
aI5505
aI6053
aI6085
aI6086
aI6112
aI6251
aI6507
aa(lp434
a(lp435
a(lp436
a(lp437
a(lp438
I2974
aI3018
aI3031
aI3045
aI3053
aI3072
aa(lp439
I3001
aI3051
aa(lp440
I2934
aa(lp441
a(lp442
a(lp443
a(lp444
I2965
aI3007
aI3126
aI3155
aa(lp445
I3017
aI3215
aI3216
aI3250
aI3408
aI3518
aI3531
aI3534
aI3535
aI3587
aI3588
aI3662
aI3665
aI3724
aI3729
aI3765
aI3785
aI3798
aI3804
aI3809
aI3810
aI3819
aI3820
aI3835
aI3857
aI3858
aI3898
aI3922
aI3971
aa(lp446
I3067
aI3079
aI3241
aI3248
aa(lp447
a(lp448
a(lp449
a(lp450
a(lp451
I3026
aI3050
aI3064
aI3125
aa(lp452
I3056
aa(lp453
a(lp454
I3120
aI3295
aI3296
aI3397
aI3405
aI3442
aI3537
aI3610
aI3614
aI3618
aI3641
aI3691
aI3727
aI3734
aI3751
aI3761
aI3795
aa(lp455
I3028
aa(lp456
I3165
aI3337
aI3372
aa(lp457
I3098
aa(lp458
a(lp459
a(lp460
a(lp461
I3041
aa(lp462
I3095
aI3184
aI3231
aa(lp463
I3164
aa(lp464
a(lp465
I3317
aa(lp466
a(lp467
a(lp468
a(lp469
a(lp470
I3289
aa(lp471
I3200
aa(lp472
a(lp473
I3455
aI3698
aI3699
aI3790
aI3796
aa(lp474
a(lp475
a(lp476
I3228
aI3352
aa(lp477
I3315
aa(lp478
a(lp479
a(lp480
I3254
aI3272
aI3283
aa(lp481
a(lp482
I3398
aI3402
aI3403
aI3446
aI3461
aI3475
aI3526
aI3596
aI3615
aI3822
aa(lp483
I3281
aI3299
aI3311
aI3328
aI3407
aI3465
aI3468
aI3501
aa(lp484
a(lp485
a(lp486
I3312
aI3383
aI3384
aI3424
aI3432
aI3460
aI3524
aI3593
aI3613
aI3666
aI3749
aI3750
aI3769
aI3777
aI3921
aa(lp487
a(lp488
a(lp489
I3346
aI3413
aI3456
aI3955
aI3991
aI4001
aa(lp490
I3605
aI3619
aI3717
aI3906
aI4007
aa(lp491
a(lp492
a(lp493
I3385
aa(lp494
I3431
aI3483
aI3581
aI3626
aI3658
aI3705
aI3706
aI3728
aI3741
aI3742
aI3768
aI3792
aI3941
aI4211
aI4254
aI4260
aI4266
aI4319
aI4437
aa(lp495
a(lp496
a(lp497
a(lp498
I3341
aI3391
aI3453
aa(lp499
I3488
aa(lp500
a(lp501
I3487
aa(lp502
a(lp503
a(lp504
I3630
aI3672
aa(lp505
a(lp506
I3561
aI3569
aI3573
aI3881
aI3916
aa(lp507
a(lp508
I3435
aI3436
aI3443
aI3458
aI3466
aI3481
aI3491
aI3495
aI3498
aI3530
aI3541
aI3548
aI3556
aI3582
aI3643
aI3646
aI3652
aI3653
aI3654
aI3671
aI3679
aI3723
aI3737
aI3946
aa(lp509
I3497
aI3504
aI3565
aI3578
aI3583
aI3584
aI3585
aI3644
aI3650
aI3651
aI3677
aI3686
aI3703
aI3710
aI3713
aI3714
aI3719
aI3720
aI3721
aI3736
aI3757
aI3758
aI3783
aI3818
aa(lp510
a(lp511
a(lp512
a(lp513
I3631
aa(lp514
a(lp515
I3539
aI3540
aI3552
aI3553
aI3884
aI3910
aI4052
aI4053
aI4061
aI4144
aI4280
aI4378
aI4458
aI4537
aI4635
aI4636
aI4820
aI4822
aI4926
aI4964
aa(lp516
a(lp517
I3586
aa(lp518
I3732
aI3813
aa(lp519
I3623
aI3683
aI3693
aI3696
aI3697
aI3707
aI3812
aI4207
aI4226
aI4229
aI4239
aI4242
aI4251
aa(lp520
I3716
aI3793
aI3943
aI3976
aI4003
aI4004
aI4048
aI4131
aI4208
aI4210
aI4234
aI4313
aI4321
aI4326
aI4409
aI4514
aI4789
aI4818
aI4881
aI4919
aI4924
aI5026
aI5039
aI5103
aI5189
aI5248
aI5252
aI5255
aI5256
aI5268
aI5313
aI5332
aI5367
aI5371
aI5408
aI5409
aI5410
aI5440
aI5551
aI5596
aI5608
aI5672
aI5769
aI5836
aI5913
aa(lp521
I3755
aI3934
aa(lp522
I3599
aI3663
aI3664
aI3700
aI3701
aI3725
aI3726
aI3735
aI4008
aI4049
aI4050
aI4184
aI4244
aI4317
aI4353
aI4410
aI4452
aI4767
aI4790
aI4791
aI4796
aI4856
aI4857
aI4869
aI4870
aI4968
aI4985
aI5027
aI5028
aI5030
aI5045
aI5079
aI5091
aI5097
aI5117
aI5180
aI5205
aI5234
aI5328
aI5340
aI5372
aI5375
aI5376
aI5419
aI5444
aI5445
aI5479
aI5480
aI5493
aI5494
aI5532
aI5553
aI5609
aI5623
aI5624
aI5665
aI5702
aI5752
aa(lp523
a(lp524
I3685
aI3740
aI3771
aI3778
aa(lp525
a(lp526
a(lp527
a(lp528
I3846
aI3847
aI3872
aa(lp529
I3855
aI3863
aI3904
aI3924
aI3983
aI4025
aI4140
aI4175
aI4189
aI4286
aI4294
aI4296
aI4345
aI4403
aI4510
aI4511
aI4615
aI4779
aI4802
aI4803
aI4886
aI5054
aI5073
aa(lp530
I3743
aI3947
aI3959
aI4130
aI4141
aI4142
aI4285
aI4308
aI4339
aI4376
aI4389
aI4390
aI4405
aI4423
aI4424
aI4427
aI4432
aI4433
aI4476
aI4536
aI4573
aI4981
aI5170
aa(lp531
a(lp532
I4090
aI4091
aI4192
aI4309
aa(lp533
I3876
aI3903
aI4029
aI4111
aI4115
aI4133
aI4145
aI4153
aI4272
aa(lp534
a(lp535
I3985
aa(lp536
a(lp537
a(lp538
I3930
aa(lp539
a(lp540
a(lp541
a(lp542
a(lp543
I3912
aI4010
aI4039
aI4075
aI4076
aI4092
aI4146
aa(lp544
a(lp545
I4056
aa(lp546
a(lp547
a(lp548
a(lp549
I4036
aI4037
aI4057
aa(lp550
I3980
aa(lp551
a(lp552
a(lp553
I4219
aa(lp554
I4042
aa(lp555
a(lp556
I3968
aI4021
aI4046
aI4066
aa(lp557
I4058
aI4071
aI4089
aI4196
aI4298
aa(lp558
I3954
aI4017
aI4117
aa(lp559
a(lp560
a(lp561
I4492
aa(lp562
I4093
aI4138
aI4139
aI4158
aa(lp563
a(lp564
I4167
aa(lp565
a(lp566
a(lp567
a(lp568
I4148
aI4165
aI4170
aI4185
aI4203
aI4213
aI4214
aI4215
aI4228
aI4253
aI4268
aI4269
aI4364
aI4467
aI4495
aI4496
aI4518
aI4519
aI4526
aa(lp569
I4064
aI4078
aI4079
aI4080
aI4100
aI4106
aI4154
aI4171
aI4217
aI4232
aa(lp570
a(lp571
I4073
aI4074
aI4119
aa(lp572
a(lp573
a(lp574
a(lp575
a(lp576
a(lp577
I4187
aa(lp578
a(lp579
I4068
aa(lp580
a(lp581
a(lp582
I4273
aI4370
aa(lp583
a(lp584
I4381
aI4395
aI5043
aI5214
aI5335
aa(lp585
I4275
aI4350
aI4365
aI4384
aI4385
aa(lp586
I4446
aI4554
aI4696
aI4717
aI4768
aa(lp587
I4277
aa(lp588
I4469
aI4470
aI4497
aI4498
aI4501
aa(lp589
I4281
aI4328
aI4530
aI4531
aI4553
aa(lp590
a(lp591
I4292
aI4407
aI4439
aI4440
aI4450
aI4454
aI4567
aa(lp592
I4263
aI4304
aI4333
aI4484
aI4533
aa(lp593
I4331
aI4351
aI4388
aI4421
aI4471
aI4477
aI4504
aI4507
aI4543
aI4544
aI4551
aa(lp594
a(lp595
a(lp596
I4259
aa(lp597
a(lp598
I4307
aa(lp599
I4575
aI4576
aI4596
aI4751
aI4775
aI4915
aa(lp600
I4387
aa(lp601
I4509
aa(lp602
I4765
aI4766
aI4863
aI4895
aI4902
aI4933
aI4935
aI4940
aI4994
aI5118
aI5124
aI5166
aI5178
aI5207
aI5216
aI5315
aI5451
aI5530
aI5711
aI6129
aI6142
aI6174
aI6198
aI6204
aI6317
aI6338
aI6476
aI6505
aI6567
aI6601
aI6616
aI6820
aI6990
aI7004
aI7074
aI7160
aI7443
aI7444
aI7453
aI7454
aI7562
aI7564
aI7565
aI7574
aI7584
aI7620
aI7655
aI7750
aI7785
aI7822
aI7831
aI7855
aI7856
aI7947
aI8006
aI8119
aI8121
aI8130
aI8131
aI8144
aI8173
aI8185
aI8193
aI8195
aI8254
aI8270
aI8271
aI8285
aI8302
aI8352
aI8455
aI8466
aI8467
aI8523
aI8524
aI8667
aI8674
aI8686
aI8701
aI8707
aI8728
aI8729
aI8734
aI8735
aI8745
aI8790
aI8814
aI8824
aI8825
aI8902
aI8929
aI8930
aI8936
aI8975
aI8976
aI8981
aI9029
aI9038
aI9067
aI9073
aI9091
aI9191
aI9223
aI9522
aI9523
aI9562
aa(lp603
a(lp604
a(lp605
a(lp606
I4335
aI4347
aI4371
aI4372
aI4406
aI4414
aI4431
aI4480
aI4503
aI4529
aI4547
aI4571
aI4693
aI4713
aI4714
aI4734
aI4772
aI4814
aI4908
aI4925
aI4960
aI5219
aI5301
aI5345
aa(lp607
I4528
aI4600
aa(lp608
a(lp609
a(lp610
a(lp611
a(lp612
I4666
aI4715
aI4771
aI4868
aa(lp613
a(lp614
a(lp615
I4588
aI4589
aI4597
aI4601
aI4611
aI4660
aI4700
aa(lp616
a(lp617
a(lp618
I4366
aa(lp619
I4676
aI4677
aI4792
aa(lp620
a(lp621
a(lp622
I5007
aa(lp623
a(lp624
I4486
aI4522
aa(lp625
I4653
aI4655
aI4687
aI4692
aI4704
aI4725
aI4740
aI4749
aa(lp626
I4568
aI5281
aa(lp627
a(lp628
a(lp629
a(lp630
I4685
aI4701
aI4733
aI4764
aa(lp631
a(lp632
I4646
aI4732
aI4773
aI4782
aI4807
aI4817
aI4821
aI4829
aI4838
aI4872
aI4893
aI4898
aI4901
aI4917
aI4923
aI4932
aI4941
aI4983
aI4984
aI4987
aI4988
aI4989
aI4990
aI5005
aI5065
aI5089
aI5096
aI5115
aI5161
aI5176
aI5247
aI5251
aI5279
aI5290
aI5291
aI5296
aI5364
aI5395
aI5421
aI5459
aI5485
aI5490
aI5500
aI5566
aI5592
aI5695
aI5782
aI5785
aI5901
aI5948
aI5987
aI6004
aI6055
aI6102
aI6263
aI6515
aI6516
aI6592
aI6954
aI6968
aI7085
aI7090
aI7099
aI7151
aI7156
aI7185
aI7186
aI7195
aI7196
aI7304
aI7321
aI7329
aI7687
aa(lp633
a(lp634
I4630
aa(lp635
I4680
aa(lp636
I4816
aI5108
aI5152
aI5173
aa(lp637
I4830
aI5000
aI5001
aI5050
aI5051
aI5052
aI5081
aI5094
aI5139
aI5153
aI5199
aI5253
aI5338
aI5411
aI5488
aI5636
aI5655
aa(lp638
a(lp639
a(lp640
a(lp641
a(lp642
a(lp643
a(lp644
I4844
aI4976
aI5162
aI5183
aa(lp645
I4711
aI4819
aI4894
aI5015
aI5016
aI5020
aI5119
aI5129
aI5136
aI5137
aI5267
aI5316
aI5341
aI5349
aI5489
aI5654
aa(lp646
I4689
aa(lp647
I4939
aI5203
aI5254
aI5378
aI5546
aa(lp648
I4827
aI4955
aa(lp649
a(lp650
a(lp651
I4776
aa(lp652
I4718
aa(lp653
I4808
aI4812
aI4839
aa(lp654
I4853
aa(lp655
I4797
aI4876
aa(lp656
a(lp657
I4833
aI4871
aI4905
aa(lp658
I4862
aI4866
aa(lp659
I4950
aI4969
aI5012
aI5072
aI5083
aI5110
aI5169
aI5197
aI5201
aI5236
aI5263
aI5275
aI5285
aI5288
aI5305
aI5324
aI5361
aa(lp660
I5037
aI5113
aI5164
aI5272
aI5278
aI5294
aI5416
aI5424
aa(lp661
a(lp662
a(lp663
a(lp664
a(lp665
a(lp666
I5063
aI5064
aI5155
aI5157
aa(lp667
I4977
aI4986
aI5057
aI5059
aI5071
aI5232
aa(lp668
a(lp669
I4899
aI4944
aI5060
aa(lp670
a(lp671
a(lp672
a(lp673
I5075
aI5109
aI5436
aI5437
aI5468
aI5469
aI5481
aI5516
aI5518
aI5577
aI5653
aI5667
aI5687
aI5710
aI5713
aI5714
aI5722
aI5723
aI5732
aI5738
aI5754
aI5757
aI5763
aI5774
aI5802
aI5838
aI5839
aI5846
aI5847
aI5869
aI5870
aI5880
aI5921
aI5924
aI5930
aI5931
aI6001
aI6108
aI6118
aa(lp674
I5114
aI5168
aI5473
aI5474
aI5535
aI5612
aI5625
aI5643
aI5684
aI5685
aI5704
aI5705
aI5727
aI5758
aI5759
aI5766
aI5787
aI5788
aI5798
aI5799
aI5806
aI5824
aI5845
aI5848
aI5853
aI5857
aI5858
aI5871
aI5873
aI5922
aI5928
aI5932
aI5933
aI5949
aI5952
aI5963
aI5964
aI5979
aI5981
aI5983
aI5984
aI6019
aI6029
aI6042
aI6045
aI6046
aI6126
aI6139
aI6228
aI6318
aI6346
aI6366
aI6382
aI6417
aI6449
aI6471
aI6522
aI6697
aI6716
aI6733
aI6736
aI6751
aI6752
aI6765
aI6828
aI6849
aI6913
aI6919
aI6921
aa(lp675
a(lp676
a(lp677
a(lp678
a(lp679
I5142
aI5249
aI5365
aI5370
aI5547
aI5564
aI5622
aI5635
aI5670
aI5671
aI5690
aI5726
aI5825
aI5904
aI5934
aI6031
aI6078
aI6079
aI6179
aI6216
aI6281
aI6298
aI6406
aI6503
aI6504
aI6512
aI6605
aI6724
aI6757
aI6790
aI6825
aI6882
aI6975
aI7101
aI7102
aI7120
aI7305
aI7325
aa(lp680
a(lp681
a(lp682
a(lp683
I5074
aI5283
aI5346
aI5353
aI5399
aI5545
aI5571
aI5632
aI5737
aa(lp684
I5135
aa(lp685
I5645
aI5961
aI6043
aI6124
aI6460
aI6474
aI6480
aI6481
aI6518
aI6519
aI6583
aI6595
aI6730
aI6739
aI6809
aI6895
aI7118
aI7121
aI7157
aI7303
aI7335
aI7678
aa(lp686
a(lp687
a(lp688
I5159
aI5217
aI5245
aI5246
aI5271
aa(lp689
a(lp690
I5181
aI5274
aI5311
aI5400
aI5417
aa(lp691
I5837
aa(lp692
a(lp693
I5154
aa(lp694
a(lp695
a(lp696
I5175
aI5215
aI5233
aI5237
aI5289
aI5299
aI5351
aI5352
aI5392
aI5398
aI5403
aI5414
aI5415
aI5432
aI5433
aI5442
aI5453
aI5458
aI5492
aI5504
aI5515
aI5529
aI5531
aI5594
aI5595
aI5629
aI5630
aI5631
aI5646
aI5649
aI5661
aI5662
aI5708
aI5724
aI5725
aI5728
aI5743
aI5744
aI5776
aI5777
aI5781
aI5790
aI5791
aI5805
aI5811
aI5827
aI5828
aI5833
aI5834
aI5879
aI5886
aI5900
aI5955
aI5956
aI5973
aI5996
aI6012
aI6034
aI6113
aI6114
aI6154
aI6354
aa(lp697
a(lp698
I5599
aI5680
aa(lp699
I5241
aI5250
aI5292
aI5293
aI5320
aI5321
aI5435
aI5463
aa(lp700
I5259
aI5380
aa(lp701
I5226
aI5381
aI5389
aI5677
aI5715
aI5718
aI5720
aI5764
aI5808
aI5856
aI5859
aI5863
aI5905
aI6030
aI6054
aI6095
aI6098
aI6099
aI6115
aI6163
aI6165
aI6181
aI6182
aI6193
aI6194
aI6220
aI6226
aI6227
aI6254
aI6259
aI6266
aI6290
aI6312
aI6339
aI6347
aI6351
aI6352
aI6370
aI6373
aI6404
aI6405
aI6409
aI6410
aI6422
aI6427
aI6439
aI6443
aI6444
aI6613
aI6614
aI6618
aI6619
aI6642
aI6701
aI6731
aI6732
aI6749
aI6769
aI6779
aI6979
aa(lp702
a(lp703
a(lp704
a(lp705
I5467
aI5526
aI5611
aI5675
aI5696
aI5697
aI5703
aI5719
aI5729
aI5730
aI5762
aI5773
aI5779
aI5780
aI5783
aI5816
aI5898
aI5910
aI5917
aI5937
aI5978
aI6106
aI6111
aI6116
aI6122
aI6123
aI6146
aI6147
aI6184
aI6196
aI6214
aI6224
aI6225
aI6275
aI6307
aI6341
aI6423
aI6438
aI6611
aI6816
aI6817
aI6892
aa(lp706
a(lp707
a(lp708
a(lp709
a(lp710
a(lp711
a(lp712
I5549
aa(lp713
I5334
aa(lp714
I5356
aI5357
aI5358
aI5383
aI5406
aI5533
aa(lp715
I5425
aa(lp716
a(lp717
a(lp718
I5429
aI5431
aI5465
aI5537
aI5600
aI5601
aI5628
aI5639
aI5668
aI5692
aI5734
aa(lp719
a(lp720
I5542
aI5543
aI5559
aI5583
aI5607
aI5843
aI6110
aI6297
aI6314
aa(lp721
a(lp722
I5447
aI5470
aI5475
aI5477
aI5478
aI5484
aI5509
aI5519
aI5527
aI5562
aI5563
aI5565
aI5576
aI5588
aI5590
aI5591
aI5598
aI5610
aI5618
aI5693
aI5694
aI5747
aa(lp723
a(lp724
a(lp725
I5513
aI5560
aI5613
aI5688
aI5689
aI5716
aI5770
aI5789
aI5803
aI5804
aI5809
aI5844
aI5849
aI5877
aI5947
aa(lp726
I5740
aI5818
aI5914
aI5915
aI6024
aI6089
aa(lp727
I5452
aa(lp728
a(lp729
a(lp730
a(lp731
a(lp732
a(lp733
I5976
aI5977
aI6081
aa(lp734
I5579
aa(lp735
a(lp736
I5739
aI5852
aI5892
aI5954
aa(lp737
a(lp738
I5741
aa(lp739
I6076
aI6167
aI6310
aI6585
aI7198
aI7258
aI7363
aI7413
aa(lp740
a(lp741
I5860
aa(lp742
a(lp743
I5815
aI5897
aI5958
aI6008
aI6125
aa(lp744
I5950
aa(lp745
a(lp746
a(lp747
a(lp748
a(lp749
a(lp750
a(lp751
I6069
aI6152
aI6241
aI6324
aI6377
aI6384
aI6387
aI6397
aI6414
aI6435
aI6440
aI6447
aI6452
aI6458
aI6461
aI6466
aI6478
aI6487
aI6500
aI6511
aI6529
aI6542
aa(lp752
a(lp753
I6672
aa(lp754
I6454
aI6589
aa(lp755
a(lp756
I6240
aI6363
aa(lp757
a(lp758
a(lp759
a(lp760
I6419
aI6467
aI6649
aI6684
aI6719
aI6748
aI6762
aI6781
aI6797
aI7033
aI7069
aI7077
aI7078
aI7079
aI7080
aI7087
aI7096
aI7302
aI7353
aI7367
aI7380
aI7531
aI7591
aI7613
aI7934
aI7944
aI7945
aI7950
aa(lp761
I5936
aI5970
aI5971
aI6006
aI6067
aI6084
aI6132
aI6133
aI6151
aI6160
aI6208
aI6209
aI6210
aI6212
aI6213
aI6221
aI6222
aI6256
aI6270
aI6292
aI6345
aI6368
aI6374
aI6402
aI6403
aI6520
aI6704
aI6723
aI6738
aI6778
aI6861
aI6943
aI6963
aI7025
aa(lp762
I5951
aI6010
aI6138
aa(lp763
I5965
aa(lp764
I5919
aa(lp765
I5972
aI6028
aa(lp766
I6202
aI6453
aa(lp767
a(lp768
a(lp769
I6195
aa(lp770
I5997
aI6002
aI6050
aI6304
aI6342
aI6360
aI6364
aI6380
aI6381
aI6446
aa(lp771
I6159
aI6187
aa(lp772
a(lp773
I6021
aI6022
aI6051
aI6052
aI6158
aI6178
aI6183
aI6238
aI6243
aI6320
aI6321
aI6322
aI6323
aI6329
aI6337
aa(lp774
I6109
aI6141
aI6197
aI6206
aI6207
aI6229
aI6231
aI6232
aa(lp775
I6070
aI6096
aI6101
aI6185
aI6186
aI6280
aI6284
aI6316
aI6325
aa(lp776
I6025
aI6072
aI6073
aI6093
aI6104
aI6203
aI6299
aI6300
aI6315
aI6331
aI6416
aI6482
aI6495
aI6509
aa(lp777
a(lp778
a(lp779
I6278
aI6350
aI6359
aI6441
aI6726
aa(lp780
a(lp781
a(lp782
a(lp783
a(lp784
I6273
aa(lp785
a(lp786
I6200
aI6309
aI6400
aI6647
aI6763
aI6764
aI6887
aa(lp787
I6311
aI6327
aI6328
aI6348
aI6361
aI6376
aI6491
aI6492
aI6636
aI6652
aa(lp788
a(lp789
a(lp790
I6528
aI6534
aI6539
aI6577
aI6630
aI6775
aa(lp791
I6319
aI6413
aI6433
aI6475
aI6510
aI6578
aI6598
aI6609
aI6610
aI6661
aI6683
aI6686
aI6687
aa(lp792
a(lp793
a(lp794
a(lp795
I6586
aI6624
aI6799
aI6855
aa(lp796
I6573
aI6707
aI6852
aI6857
aI6973
aI7103
aI7113
aI7233
aI7327
aI7330
aI7386
aI7441
aI7451
aa(lp797
I6425
aa(lp798
I6383
aI6445
aI6496
aI6497
aI6514
aI6532
aI6537
aI6569
aI6570
aI6571
aI6572
aI6603
aI6615
aI6625
aI6638
aI6660
aI6678
aI6750
aI6759
aI6772
aI6804
aI6805
aI6900
aI6901
aI6916
aI6925
aI7015
aI7218
aI7255
aI7458
aa(lp799
a(lp800
a(lp801
a(lp802
a(lp803
a(lp804
a(lp805
I6632
aa(lp806
I6590
aI6699
aI6761
aI6884
aI7044
aI7223
aI7490
aI7630
aa(lp807
I6535
aI6685
aI6689
aI6690
aI6729
aI6747
aI6932
aI6978
aI6987
aI7111
aI7226
aa(lp808
a(lp809
I6602
aI6835
aa(lp810
I6551
aI6556
aI6557
aI6579
aI6607
aI6628
aI6633
aI6677
aI6773
aI6785
aI6788
aI6795
aI6802
aI6819
aa(lp811
a(lp812
I6536
aI6550
aI6564
aI6655
aI6657
aI6691
aI6798
aI6808
aI6811
aI7009
aI7070
aa(lp813
a(lp814
a(lp815
I6703
aI6709
aI6711
aI6714
aI6718
aI6851
aI6917
aa(lp816
a(lp817
I6608
aI6634
aI6635
aI6676
aI6682
aI6695
aI6696
aI6712
aI6741
aI6742
aI6743
aI6753
aI6758
aI6789
aI6801
aI6813
aa(lp818
a(lp819
a(lp820
I6776
aa(lp821
a(lp822
a(lp823
a(lp824
a(lp825
a(lp826
a(lp827
a(lp828
I6837
aI6865
aI6866
aI6927
aI6977
aI6980
aI7038
aa(lp829
a(lp830
I6774
aa(lp831
I7267
aa(lp832
a(lp833
a(lp834
a(lp835
a(lp836
a(lp837
a(lp838
I6877
aa(lp839
I6845
aa(lp840
I6863
aI6878
aI6881
aI6909
aI6924
aI6929
aI6930
aI6970
aI6996
aI7002
aI7071
aI7127
aI7133
aI7208
aa(lp841
a(lp842
I7036
aa(lp843
a(lp844
a(lp845
I7188
aa(lp846
I6931
aI7013
aI7014
aI7082
aI7083
aI7138
aa(lp847
I7088
aI7254
aa(lp848
a(lp849
a(lp850
I6894
aI6905
aI6908
aI7019
aI7072
aI7170
aa(lp851
I6974
aI7007
aI7052
aI7095
aa(lp852
I7050
aa(lp853
I6944
aI6945
aI6972
aI7073
aI7203
aa(lp854
I7109
aI7110
aI7146
aI7213
aa(lp855
I7012
aI7042
aa(lp856
I7287
aI7394
aI7511
aI7893
aI7894
aI8055
aI8079
aI8132
aa(lp857
a(lp858
a(lp859
I7008
aI7068
aa(lp860
I7058
aa(lp861
a(lp862
I7037
aI7279
aI7409
aa(lp863
a(lp864
I7094
aa(lp865
I7057
aI7062
aI7107
aI7108
aI7187
aI7232
aI7235
aI7272
aa(lp866
I7339
aI7365
aI7384
aI7576
aI7581
aI7603
aI7938
aI7939
aI8072
aI8234
aa(lp867
a(lp868
I7021
aI7104
aI7115
aI7246
aI7252
aI7253
aI7354
aI7355
aI7414
aI7438
aI7439
aI7525
aI7546
aa(lp869
I7106
aa(lp870
I7097
aI7346
aa(lp871
I7144
aI7154
aI7192
aI7316
aI7317
aI7326
aI7401
aI7402
aI7445
aI7446
aI7507
aI7508
aI7514
aI7540
aa(lp872
a(lp873
a(lp874
I7216
aI7228
aI7277
aI7286
aI7289
aI7294
aI7323
aI7390
aI7391
aI7398
aI7449
aI7456
aa(lp875
a(lp876
a(lp877
I7123
aI7190
aI7222
aI7224
aI7262
aI7293
aI7319
aI7352
aI7381
aI7396
aI7407
aI7424
aI7433
aI7469
aI7486
aI7615
aI7624
aI7669
aI7721
aI7761
aI7792
aI7964
aI8231
aa(lp878
I7174
aI7284
aI7320
aI7371
aI7392
aI7393
aI7403
aI7404
aI7499
aa(lp879
I7215
aI7275
aI7572
aI7598
aa(lp880
a(lp881
I7124
aI7399
aI7400
aI7426
aI7427
aI7430
aI7496
aI7521
aI7522
aa(lp882
a(lp883
a(lp884
a(lp885
I7171
aI7278
aI7429
aI7586
aa(lp886
a(lp887
I7345
aI7543
aa(lp888
a(lp889
a(lp890
a(lp891
I7350
aI7539
aa(lp892
a(lp893
I7332
aa(lp894
a(lp895
I7259
aI7273
aI7297
aI7300
aI7504
aI7553
aI7554
aI7571
aI7602
aI7622
aI7644
aI7689
aa(lp896
a(lp897
a(lp898
I7361
aI7374
aI7375
aI7437
aI7989
aI7990
aI7997
aI8020
aI8413
aI8414
aI8479
aI8480
aI8557
aa(lp899
a(lp900
I7498
aa(lp901
I7688
aa(lp902
I7364
aI7479
aI7481
aI7645
aI7725
aI7821
aI7840
aI7924
aI8066
aI8067
aI8101
aI8114
aI8167
aI8168
aI8200
aI8210
aa(lp903
I7411
aI7423
aI7442
aI7474
aI7495
aI7608
aI7609
aI7663
aa(lp904
a(lp905
I7727
aI7771
aI7780
aa(lp906
a(lp907
I7592
aI7652
aI7656
aI7847
aI7848
aI7884
aI7892
aI7905
aI7908
aI7912
aI7913
aI7929
aI8053
aI8136
aI8153
aa(lp908
I7519
aI8316
aI8380
aI8381
aa(lp909
I7517
aI7887
aa(lp910
I7417
aI7425
aI7435
aI7436
aa(lp911
a(lp912
a(lp913
I7470
aI7705
aI7723
aI7735
aI7736
aI7751
aI7758
aI7762
aa(lp914
a(lp915
I7677
aI7701
aI7720
aI7787
aI7942
aI8004
aa(lp916
I7544
aI7560
aa(lp917
a(lp918
a(lp919
I7548
aa(lp920
I7494
aI7537
aI7561
aI7568
aI7569
aI7578
aI7582
aI7631
aI7647
aI7653
aa(lp921
a(lp922
a(lp923
I7650
aI7651
aI7685
aI7698
aI7699
aI7760
aI7773
aI7775
aI7835
aI7836
aa(lp924
a(lp925
a(lp926
a(lp927
I8033
aa(lp928
I7713
aa(lp929
a(lp930
I7606
aI7662
aI7665
aI7666
aI7712
aI7909
aI8083
aI8088
aI8401
aa(lp931
a(lp932
a(lp933
a(lp934
a(lp935
a(lp936
I7626
aI7724
aI7745
aI7752
aI7800
aI7977
aa(lp937
a(lp938
a(lp939
I7829
aI7859
aI8100
aa(lp940
a(lp941
I7739
aa(lp942
a(lp943
a(lp944
I7763
aa(lp945
a(lp946
I7805
aI7868
aI7871
aI7932
aI8104
aa(lp947
I8180
aI8509
aI8538
aI8545
aI8654
aI8679
aI8712
aI8847
aI8861
aa(lp948
a(lp949
a(lp950
a(lp951
a(lp952
a(lp953
a(lp954
I7790
aa(lp955
a(lp956
I7852
aa(lp957
I8133
aa(lp958
a(lp959
I7765
aI7766
aI7794
aa(lp960
I8091
aI8092
aI8105
aI8106
aI8179
aI8308
aa(lp961
I7857
aI7937
aI8042
aI8126
aI8191
aI8236
aI8336
aI8357
aa(lp962
I8530
aI8722
aa(lp963
a(lp964
I7881
aI7895
aI7903
aI8001
aI8087
aa(lp965
a(lp966
a(lp967
I7830
aI8012
aa(lp968
I7874
aI7953
aI7962
aI8015
aI8025
aa(lp969
I7930
aI7935
aI7943
aI7960
aI8013
aa(lp970
a(lp971
a(lp972
a(lp973
a(lp974
a(lp975
I7906
aI7907
aI7949
aa(lp976
a(lp977
I7916
aI7974
aI7991
aa(lp978
a(lp979
I7861
aI7876
aI8023
aI8041
aI8073
aI8196
aI8197
aI8248
aa(lp980
a(lp981
a(lp982
I7926
aa(lp983
I7983
aI8045
aa(lp984
a(lp985
I8039
aI8169
aa(lp986
a(lp987
I8090
aI8429
aI8596
aI8618
aI8680
aI8692
aI8725
aI8820
aI8851
aa(lp988
I7966
aI7967
aI7971
aI8028
aa(lp989
a(lp990
I7933
aI8044
aI8159
aI8218
aa(lp991
I8047
aa(lp992
I8311
aa(lp993
I8107
aI8108
aI8225
aa(lp994
I7920
aI7970
aI8128
aI8166
aa(lp995
I8099
aI8139
aI8146
aI8156
aI8224
aa(lp996
I8322
aI8373
aI8377
aI8432
aa(lp997
I8422
aa(lp998
a(lp999
a(lp1000
a(lp1001
I8288
aI8291
aI8494
aI8620
aI8757
aI8796
aI8953
aI8963
aI8967
aI9050
aa(lp1002
a(lp1003
a(lp1004
a(lp1005
I8170
aI8184
aI8222
aa(lp1006
a(lp1007
a(lp1008
I8246
aI8280
aa(lp1009
I8127
aI8237
aI8290
aI8363
aI8364
aI8417
aI8541
aI8556
aI8587
aI8743
aa(lp1010
I8160
aI8348
aI8368
aI8376
aI8392
aI8393
aI8394
aI8420
aI8428
aI8431
aI8445
aI8446
aI8449
aI8456
aI8539
aI8560
aa(lp1011
a(lp1012
I8331
aI8342
aI8365
aI8398
aI8424
aI8443
aa(lp1013
a(lp1014
a(lp1015
I8198
aa(lp1016
a(lp1017
I8387
aI8399
aI8400
aI8495
aI8532
aI8546
aI8561
aI8584
aI8655
aa(lp1018
a(lp1019
I8627
aa(lp1020
a(lp1021
a(lp1022
I8175
aI8178
aI8247
aI8259
aI8260
aI8263
aI8264
aI8268
aI8269
aI8277
aI8306
aI8350
aa(lp1023
a(lp1024
I8276
aI8324
aI8437
aI8463
aI8510
aa(lp1025
I8593
aa(lp1026
a(lp1027
I8176
aI8177
aI8261
aI8340
aI8564
aI8571
aI8572
aI8615
aI8647
aI8678
aI8684
aI8685
aI8769
aI8785
aI8792
aI8793
aI8801
aI8807
aI8812
aI8860
aI8943
aa(lp1028
I8671
aI8794
aI9003
aa(lp1029
I8297
aa(lp1030
I8345
aa(lp1031
a(lp1032
I8464
aI8623
aa(lp1033
I8344
aI8519
aI8552
aI8608
aa(lp1034
I8640
aa(lp1035
I8389
aI8613
aI8637
aI8638
aI8660
aI8675
aI8709
aa(lp1036
a(lp1037
I8391
aa(lp1038
I8334
aa(lp1039
I8337
aI8436
aI8462
aa(lp1040
I8535
aa(lp1041
I8256
aI8289
aI8312
aa(lp1042
a(lp1043
I8407
aI8516
aa(lp1044
I8396
aa(lp1045
a(lp1046
a(lp1047
I8359
aI8433
aI8502
aa(lp1048
a(lp1049
a(lp1050
a(lp1051
I8569
aI8594
aI8595
aI8600
aI8602
aI8611
aI8616
aI8617
aI8636
aI8643
aI8649
aI8670
aI8693
aI8694
aI8700
aI8716
aI8749
aI8750
aI8751
aI8756
aI8842
aI8890
aI8940
aI8942
aI8959
aI9036
aI9037
aI9080
aI9081
aI9084
aI9085
aI9090
aI9094
aI9106
aI9170
aI9171
aI9197
aI9198
aI9205
aI9227
aI9240
aI9241
aI9266
aI9291
aI9309
aa(lp1052
a(lp1053
a(lp1054
I8508
aa(lp1055
a(lp1056
a(lp1057
I8612
aa(lp1058
I8504
aI8529
aI8568
aI8576
aI8592
aI8653
aa(lp1059
I8781
aI8989
aI9140
aI9141
aI9144
aI9149
aI9167
aI9219
aa(lp1060
I8803
aa(lp1061
a(lp1062
a(lp1063
a(lp1064
I8691
aI8772
aI8868
aa(lp1065
a(lp1066
a(lp1067
I8662
aI8856
aI8877
aI8883
aI8917
aI8927
aI8937
aa(lp1068
a(lp1069
I8474
aI8475
aI8497
aI8498
aI8549
aI8631
aI8666
aI8724
aI8874
aa(lp1070
a(lp1071
I8747
aI8755
aI9042
aI9145
aI9158
aI9246
aI9406
aI9407
aI9517
aI9552
aI9553
aI9605
aI9616
aI9618
aI9628
aa(lp1072
I8740
aI9097
aa(lp1073
I8644
aI8688
aI8696
aI8850
aI8904
aI8911
aI8912
aI9008
aa(lp1074
I8802
aI8810
aI8817
aI8845
aa(lp1075
I8805
aI8806
aI8811
aI8909
aa(lp1076
I8668
aI8773
aa(lp1077
a(lp1078
a(lp1079
a(lp1080
I8717
aI8828
aa(lp1081
a(lp1082
a(lp1083
I8888
aa(lp1084
I8789
aa(lp1085
a(lp1086
I8841
aa(lp1087
a(lp1088
I8852
aa(lp1089
I8720
aI8778
aa(lp1090
a(lp1091
a(lp1092
a(lp1093
a(lp1094
I8934
aI8935
aI8949
aI8955
aI8957
aI8969
aI8971
aI8991
aI8996
aI9010
aI9012
aI9105
aI9192
aI9224
aI9418
aa(lp1095
I8705
aI8775
aI8784
aI8795
aI8837
aa(lp1096
I8831
aa(lp1097
a(lp1098
I9127
aI9136
aI9206
aa(lp1099
a(lp1100
a(lp1101
I8972
aa(lp1102
I8838
aI8952
aa(lp1103
a(lp1104
I8921
aI8922
aI8945
aI8950
aI8982
aI8987
aI9039
aa(lp1105
I9023
aa(lp1106
I9013
aI9117
aI9124
aI9181
aI9221
aI9228
aI9276
aa(lp1107
I9021
aa(lp1108
I9069
aa(lp1109
a(lp1110
a(lp1111
I8984
aI9054
aa(lp1112
a(lp1113
a(lp1114
a(lp1115
I9014
aa(lp1116
a(lp1117
I9678
aI9798
aa(lp1118
a(lp1119
a(lp1120
I9152
aa(lp1121
I8905
aI8948
aI8974
aI9000
aI9001
aI9031
aI9040
aI9047
aI9062
aI9087
aa(lp1122
I8986
aI8999
aa(lp1123
I9045
aI9055
aI9068
aa(lp1124
I9107
aI9132
aI9153
aI9154
aI9185
aI9199
aI9208
aI9209
aI9230
aI9300
aI9301
aI9302
aI9303
aI9319
aI9368
aI9417
aa(lp1125
a(lp1126
a(lp1127
I9103
aI9157
aI9186
aI9285
aa(lp1128
a(lp1129
a(lp1130
I9175
aI9282
aI9371
aI9518
aa(lp1131
I9243
aa(lp1132
I9173
aI9216
aI9326
aa(lp1133
I9166
aI9231
aa(lp1134
I9110
aI9183
aI9184
aI9257
aI9329
aa(lp1135
I9120
aI9151
aa(lp1136
I9247
aI9248
aI9341
aI9342
aI9353
aI9356
aI9379
aI9381
aI9453
aa(lp1137
I9133
aI9182
aI9193
aI9213
aI9265
aa(lp1138
a(lp1139
a(lp1140
I9325
aI9370
aI9447
aI9456
aI9561
aI9607
aa(lp1141
a(lp1142
I9201
aa(lp1143
a(lp1144
I9155
aI9177
aI9189
aI9190
aI9195
aI9255
aI9280
aI9315
aa(lp1145
a(lp1146
I9347
aI9385
aa(lp1147
a(lp1148
a(lp1149
a(lp1150
a(lp1151
I9322
aa(lp1152
I9334
aI9414
aa(lp1153
I9292
aI9306
aI9307
aI9316
aI9317
aI9346
aI9351
aI9364
aI9365
aI9366
aI9374
aI9380
aI9384
aI9390
aI9426
aI9449
aa(lp1154
a(lp1155
I9284
aI9360
aa(lp1156
I9348
aI9349
aI9352
aI9388
aI9415
aI9450
aa(lp1157
I9434
aI9475
aI9486
aI9494
aI9512
aI9514
aI9572
aI9600
aa(lp1158
a(lp1159
I9272
aI9273
aI9331
aI9335
aa(lp1160
I9387
aI9469
aa(lp1161
a(lp1162
a(lp1163
I9391
aI9392
aI9420
aI9442
aa(lp1164
I9443
aI9506
aa(lp1165
I9521
aI9526
aa(lp1166
I9473
aI9548
aa(lp1167
a(lp1168
a(lp1169
a(lp1170
a(lp1171
I9440
aI9451
aa(lp1172
I9598
aI9599
aI9728
aa(lp1173
I9472
aI9482
aI9489
aI9587
aI9615
aI9636
aI9665
aI9666
aI9669
aI9670
aI9671
aI9682
aI9692
aI9693
aI9720
aI9745
aa(lp1174
I9445
aI9520
aI9589
aa(lp1175
I9493
aI9656
aa(lp1176
a(lp1177
I9593
aa(lp1178
I9680
aa(lp1179
a(lp1180
a(lp1181
a(lp1182
I9508
aI9535
aI9554
aI9580
aI9583
aI9584
aI9585
aI9626
aI9630
aI9633
aI9641
aI9661
aa(lp1183
I9529
aI9579
aa(lp1184
I9527
aa(lp1185
a(lp1186
I9619
aI9667
aI9668
aI9696
aI9699
aI9815
aI9819
aI9861
aa(lp1187
I9614
aI9677
aa(lp1188
a(lp1189
a(lp1190
a(lp1191
a(lp1192
I9603
aI9609
aI9610
aI9631
aa(lp1193
a(lp1194
a(lp1195
I9568
aI9622
aI9638
aI9705
aI9711
aI9712
aI9723
aI9727
aa(lp1196
I9871
aI9929
aI9930
aI9950
aI9951
aI9980
aa(lp1197
I9654
aI9675
aI9695
aI9736
aI9743
aI9756
aI9769
aI9770
aI9772
aI9789
aI9803
aI9831
aI9866
aI9912
aa(lp1198
a(lp1199
a(lp1200
a(lp1201
a(lp1202
a(lp1203
a(lp1204
a(lp1205
I9726
aI9761
aa(lp1206
a(lp1207
a(lp1208
I9823
aa(lp1209
I9762
aI9779
aI9780
aI9795
aI9834
aa(lp1210
I9709
aI9713
aI9714
aI9725
aI9737
aI9759
aa(lp1211
I9775
aI9880
aI9881
aI9902
aa(lp1212
I9773
aI9786
aI9799
aI9821
aI9849
aI9858
aa(lp1213
I9757
aI9758
aI9839
aI9856
aa(lp1214
a(lp1215
I9793
aa(lp1216
a(lp1217
a(lp1218
I9782
aI9797
aI9804
aI9820
aI9825
aI9826
aI9828
aI9830
aI9840
aI9868
aI9873
aa(lp1219
I9813
aa(lp1220
a(lp1221
I9812
aa(lp1222
a(lp1223
I9895
aa(lp1224
I9801
aI9808
aI9810
aI9899
aa(lp1225
I9915
aa(lp1226
a(lp1227
I9864
aI9869
aI9878
aI9879
aI9885
aI9886
aa(lp1228
a(lp1229
I9883
aI9897
aI9898
aI9906
aI9907
aI9909
aI9923
aa(lp1230
I9918
aI9928
aI9931
aI9932
aI9937
aI9959
aI9960
aa(lp1231
a(lp1232
a(lp1233
I9940
aI9953
aI9963
aI9969
aa(lp1234
I9944
aI9954
aa(lp1235
I9998
aa(lp1236
I9971
aa(lp1237
I9957
aI9972
aI9973
aI9982
aI9983
aI10006
aa(lp1238
a(lp1239
I9978
aI9979
aI9986
aI9992
aI9993
aI9995
aI9996
aI9997
aa(lp1240
I9990
aa.